(lp0
(S'HEPG2'
p1
S'PSME1'
p2
S'3'
p3
tp4
a(g1
S'CISD1'
p5
g3
tp6
a(g1
S'VDAC1'
p7
g3
tp8
a(g1
S'SORBS3'
p9
g3
tp10
a(g1
S'SPDEF'
p11
g3
tp12
a(g1
S'ATF1'
p13
g3
tp14
a(g1
S'SPAG4'
p15
g3
tp16
a(g1
S'E2F2'
p17
g3
tp18
a(g1
S'RHEB'
p19
g3
tp20
a(g1
S'IGF1R'
p21
g3
tp22
a(g1
S'SLC5A6'
p23
g3
tp24
a(g1
S'FOXO3'
p25
g3
tp26
a(g1
S'RGS2'
p27
g3
tp28
a(g1
S'GSTM2'
p29
g3
tp30
a(g1
S'SCYL3'
p31
g3
tp32
a(g1
S'RHOA'
p33
g3
tp34
a(g1
S'TBX2'
p35
g3
tp36
a(g1
S'DNAJA3'
p37
g3
tp38
a(g1
S'IL1B'
p39
g3
tp40
a(g1
S'ASAH1'
p41
g3
tp42
a(g1
S'DCUN1D4'
p43
g3
tp44
a(g1
S'DYRK3'
p45
g3
tp46
a(g1
S'RALA'
p47
g3
tp48
a(g1
S'ARHGEF12'
p49
g3
tp50
a(g1
S'POLG2'
p51
g3
tp52
a(g1
S'SOX2'
p53
g3
tp54
a(g1
S'TRAPPC3'
p55
g3
tp56
a(g1
S'SERPINE1'
p57
g3
tp58
a(g1
S'TCFL5'
p59
g3
tp60
a(g1
S'CRK'
p61
g3
tp62
a(g1
S'HLA-DMA'
p63
g3
tp64
a(g1
S'EGF'
p65
g3
tp66
a(g1
S'RBM34'
p67
g3
tp68
a(g1
S'ITGB1BP1'
p69
g3
tp70
a(g1
S'SPTLC2'
p71
g3
tp72
a(g1
S'ACLY'
p73
g3
tp74
a(g1
S'APP'
p75
g3
tp76
a(g1
S'RAD51C'
p77
g3
tp78
a(g1
S'TSKU'
p79
g3
tp80
a(g1
S'SMC1A'
p81
g3
tp82
a(g1
S'TMEM2'
p83
g3
tp84
a(g1
S'NOS3'
p85
g3
tp86
a(g1
S'YME1L1'
p87
g3
tp88
a(g1
S'ACAA1'
p89
g3
tp90
a(g1
S'CSNK1A1'
p91
g3
tp92
a(g1
S'HSPA8'
p93
g3
tp94
a(g1
S'NFATC4'
p95
g3
tp96
a(g1
S'CCNB1'
p97
g3
tp98
a(g1
S'TBP'
p99
g3
tp100
a(g1
S'SLC2A6'
p101
g3
tp102
a(g1
S'WFS1'
p103
g3
tp104
a(g1
S'EZH2'
p105
g3
tp106
a(g1
S'UBE3B'
p107
g3
tp108
a(g1
S'ICAM3'
p109
g3
tp110
a(g1
S'NPDC1'
p111
g3
tp112
a(g1
S'ALDH7A1'
p113
g3
tp114
a(g1
S'BRCA1'
p115
g3
tp116
a(g1
S'NFATC3'
p117
g3
tp118
a(g1
S'PSMD4'
p119
g3
tp120
a(g1
S'PCNA'
p121
g3
tp122
a(g1
S'PHKG2'
p123
g3
tp124
a(g1
S'ETV1'
p125
g3
tp126
a(g1
S'POLR2I'
p127
g3
tp128
a(g1
S'KDM5B'
p129
g3
tp130
a(g1
S'PSMB8'
p131
g3
tp132
a(g1
S'AKAP8L'
p133
g3
tp134
a(g1
S'COG4'
p135
g3
tp136
a(g1
S'MCM3'
p137
g3
tp138
a(g1
S'PLEKHJ1'
p139
g3
tp140
a(g1
S'HAT1'
p141
g3
tp142
a(g1
S'TERT'
p143
g3
tp144
a(g1
S'G3BP1'
p145
g3
tp146
a(g1
S'SNX13'
p147
g3
tp148
a(g1
S'PAK4'
p149
g3
tp150
a(g1
S'TPD52L2'
p151
g3
tp152
a(g1
S'DPH2'
p153
g3
tp154
a(g1
S'PIH1D1'
p155
g3
tp156
a(g1
S'PRKCQ'
p157
g3
tp158
a(g1
S'SNX6'
p159
g3
tp160
a(g1
S'EED'
p161
g3
tp162
a(g1
S'SHB'
p163
g3
tp164
a(g1
S'UTP14A'
p165
g3
tp166
a(g1
S'WIPF2'
p167
g3
tp168
a(g1
S'NENF'
p169
g3
tp170
a(g1
S'TSEN2'
p171
g3
tp172
a(g1
S'RPN1'
p173
g3
tp174
a(g1
S'SUV39H1'
p175
g3
tp176
a(g1
S'C2CD2L'
p177
g3
tp178
a(g1
S'LYPLA1'
p179
g3
tp180
a(g1
S'BIRC2'
p181
g3
tp182
a(g1
S'GABPB1'
p183
g3
tp184
a(g1
S'MAP2K5'
p185
g3
tp186
a(g1
S'POLR2K'
p187
g3
tp188
a(g1
S'PTK2B'
p189
g3
tp190
a(g1
S'PUF60'
p191
g3
tp192
a(g1
S'DHRS7'
p193
g3
tp194
a(g1
S'PAF1'
p195
g3
tp196
a(g1
S'ARID5B'
p197
g3
tp198
a(g1
S'POLR1C'
p199
g3
tp200
a(g1
S'PAK1'
p201
g3
tp202
a(g1
S'RUVBL1'
p203
g3
tp204
a(g1
S'AKT1'
p205
g3
tp206
a(g1
S'CDC42'
p207
g3
tp208
a(g1
S'IGHMBP2'
p209
g3
tp210
a(g1
S'SENP6'
p211
g3
tp212
a(g1
S'ADO'
p213
g3
tp214
a(g1
S'HSPB1'
p215
g3
tp216
a(g1
S'EBP'
p217
g3
tp218
a(g1
S'TCTN1'
p219
g3
tp220
a(g1
S'AKR7A2'
p221
g3
tp222
a(g1
S'CASK'
p223
g3
tp224
a(g1
S'PPP2R5E'
p225
g3
tp226
a(g1
S'RRP8'
p227
g3
tp228
a(g1
S'LAMA3'
p229
g3
tp230
a(g1
S'PIK3C3'
p231
g3
tp232
a(g1
S'BHLHE40'
p233
g3
tp234
a(g1
S'CCNE2'
p235
g3
tp236
a(g1
S'BDH1'
p237
g3
tp238
a(g1
S'FEZ2'
p239
g3
tp240
a(g1
S'IKBKAP'
p241
g3
tp242
a(g1
S'SH3BP5'
p243
g3
tp244
a(g1
S'PPP2R5A'
p245
g3
tp246
a(g1
S'SGCB'
p247
g3
tp248
a(g1
S'EML3'
p249
g3
tp250
a(g1
S'ENOPH1'
p251
g3
tp252
a(g1
S'BIRC5'
p253
g3
tp254
a(g1
S'CNOT4'
p255
g3
tp256
a(g1
S'EPRS'
p257
g3
tp258
a(g1
S'SNAP25'
p259
g3
tp260
a(g1
S'JMJD6'
p261
g3
tp262
a(g1
S'PAX8'
p263
g3
tp264
a(g1
S'CBLB'
p265
g3
tp266
a(g1
S'SLC35F2'
p267
g3
tp268
a(g1
S'ANO10'
p269
g3
tp270
a(g1
S'PDS5A'
p271
g3
tp272
a(g1
S'DFFB'
p273
g3
tp274
a(g1
S'STUB1'
p275
g3
tp276
a(g1
S'PGAM1'
p277
g3
tp278
a(g1
S'TGFB3'
p279
g3
tp280
a(g1
S'BAD'
p281
g3
tp282
a(g1
S'XBP1'
p283
g3
tp284
a(g1
S'NMT1'
p285
g3
tp286
a(g1
S'PSMD10'
p287
g3
tp288
a(g1
S'ARFIP2'
p289
g3
tp290
a(g1
S'RAB11FIP2'
p291
g3
tp292
a(g1
S'FPGS'
p293
g3
tp294
a(g1
S'STAMBP'
p295
g3
tp296
a(g1
S'PRKX'
p297
g3
tp298
a(g1
S'RNH1'
p299
g3
tp300
a(g1
S'ATG3'
p301
g3
tp302
a(g1
S'FAH'
p303
g3
tp304
a(g1
S'NCK1'
p305
g3
tp306
a(g1
S'PLP2'
p307
g3
tp308
a(g1
S'CFLAR'
p309
g3
tp310
a(g1
S'SOX4'
p311
g3
tp312
a(g1
S'HEATR1'
p313
g3
tp314
a(g1
S'TESK1'
p315
g3
tp316
a(g1
S'HN1L'
p317
g3
tp318
a(g1
S'WDR7'
p319
g3
tp320
a(g1
S'AKAP8'
p321
g3
tp322
a(g1
S'RRAGA'
p323
g3
tp324
a(g1
S'ELOVL6'
p325
g3
tp326
a(g1
S'SLC1A4'
p327
g3
tp328
a(g1
S'ACBD3'
p329
g3
tp330
a(g1
S'GRWD1'
p331
g3
tp332
a(g1
S'PMAIP1'
p333
g3
tp334
a(g1
S'STAT1'
p335
g3
tp336
a(g1
S'FOXJ3'
p337
g3
tp338
a(g1
S'TWF2'
p339
g3
tp340
a(g1
S'HDAC6'
p341
g3
tp342
a(g1
S'MTERFD1'
p343
g3
tp344
a(g1
S'CCND1'
p345
g3
tp346
a(g1
S'CHIC2'
p347
g3
tp348
a(g1
S'PXN'
p349
g3
tp350
a(g1
S'USP7'
p351
g3
tp352
a(g1
S'NOSIP'
p353
g3
tp354
a(g1
S'PHKB'
p355
g3
tp356
a(g1
S'DLD'
p357
g3
tp358
a(g1
S'NFKBIB'
p359
g3
tp360
a(g1
S'CASC3'
p361
g3
tp362
a(g1
S'IDE'
p363
g3
tp364
a(g1
S'CD40'
p365
g3
tp366
a(g1
S'MLEC'
p367
g3
tp368
a(g1
S'GLI2'
p369
g3
tp370
a(g1
S'PRPF4'
p371
g3
tp372
a(g1
S'MELK'
p373
g3
tp374
a(g1
S'USP22'
p375
g3
tp376
a(g1
S'DAXX'
p377
g3
tp378
a(g1
S'TMED10'
p379
g3
tp380
a(g1
S'CHERP'
p381
g3
tp382
a(g1
S'SMAD3'
p383
g3
tp384
a(g1
S'OXA1L'
p385
g3
tp386
a(g1
S'PIK3CA'
p387
g3
tp388
a(g1
S'SNX7'
p389
g3
tp390
a(g1
S'TRAPPC6A'
p391
g3
tp392
a(g1
S'ATP2C1'
p393
g3
tp394
a(g1
S'CDCA4'
p395
g3
tp396
a(g1
S'TBC1D9B'
p397
g3
tp398
a(g1
S'USP14'
p399
g3
tp400
a(g1
S'APPBP2'
p401
g3
tp402
a(g1
S'CDC20'
p403
g3
tp404
a(g1
S'NARFL'
p405
g3
tp406
a(g1
S'RPS6'
p407
g3
tp408
a(g1
S'DDX42'
p409
g3
tp410
a(g1
S'ECH1'
p411
g3
tp412
a(g1
S'HDAC2'
p413
g3
tp414
a(g1
S'IKBKE'
p415
g3
tp416
a(g1
S'CCL2'
p417
g3
tp418
a(g1
S'DFFA'
p419
g3
tp420
a(g1
S'MRPL19'
p421
g3
tp422
a(g1
S'WDTC1'
p423
g3
tp424
a(g1
S'PLSCR3'
p425
g3
tp426
a(g1
S'SUZ12'
p427
g3
tp428
a(g1
S'CSNK2A2'
p429
g3
tp430
a(g1
S'H2AFV'
p431
g3
tp432
a(g1
S'NUSAP1'
p433
g3
tp434
a(g1
S'TICAM1'
p435
g3
tp436
a(g1
S'FAM69A'
p437
g3
tp438
a(g1
S'KIAA0100'
p439
g3
tp440
a(g1
S'PAICS'
p441
g3
tp442
a(g1
S'SRC'
p443
g3
tp444
a(g1
S'BMP4'
p445
g3
tp446
a(g1
S'CDK2'
p447
g3
tp448
a(g1
S'EDN1'
p449
g3
tp450
a(g1
S'XPO7'
p451
g3
tp452
a(g1
S'FAIM'
p453
g3
tp454
a(g1
S'KIAA0494'
p455
g3
tp456
a(g1
S'PXMP2'
p457
g3
tp458
a(g1
S'SQSTM1'
p459
g3
tp460
a(g1
S'HIF1A'
p461
g3
tp462
a(g1
S'TIMM17B'
p463
g3
tp464
a(g1
S'STXBP2'
p465
g3
tp466
a(g1
S'WRB'
p467
g3
tp468
a(g1
S'ETFB'
p469
g3
tp470
a(g1
S'MNAT1'
p471
g3
tp472
a(g1
S'CAMSAP2'
p473
g3
tp474
a(g1
S'HPRT1'
p475
g3
tp476
a(g1
S'ARNT2'
p477
g3
tp478
a(g1
S'RRS1'
p479
g3
tp480
a(g1
S'ADAT1'
p481
g3
tp482
a(g1
S'SPAG7'
p483
g3
tp484
a(g1
S'MAPK1IP1L'
p485
g3
tp486
a(g1
S'SCAND1'
p487
g3
tp488
a(g1
S'MFSD10'
p489
g3
tp490
a(g1
S'MSH6'
p491
g3
tp492
a(g1
S'COPS7A'
p493
g3
tp494
a(g1
S'UBE2C'
p495
g3
tp496
a(g1
S'FIS1'
p497
g3
tp498
a(g1
S'HS2ST1'
p499
g3
tp500
a(g1
S'NUDT9'
p501
g3
tp502
a(g1
S'TXLNA'
p503
g3
tp504
a(g1
S'CSRP1'
p505
g3
tp506
a(g1
S'DNAJB1'
p507
g3
tp508
a(g1
S'METRN'
p509
g3
tp510
a(g1
S'TOPBP1'
p511
g3
tp512
a(g1
S'ABCF1'
p513
g3
tp514
a(g1
S'TCTA'
p515
g3
tp516
a(g1
S'LGMN'
p517
g3
tp518
a(g1
S'TLK2'
p519
g3
tp520
a(g1
S'KIAA1033'
p521
g3
tp522
a(g1
S'PTGS2'
p523
g3
tp524
a(g1
S'DNAJB6'
p525
g3
tp526
a(g1
S'PLA2G4A'
p527
g3
tp528
a(g1
S'MAT2A'
p529
g3
tp530
a(g1
S'TLR4'
p531
g3
tp532
a(g1
S'HMGCS1'
p533
g3
tp534
a(g1
S'MBTPS1'
p535
g3
tp536
a(g1
S'SPRED2'
p537
g3
tp538
a(g1
S'ZNF274'
p539
g3
tp540
a(g1
S'CLIC4'
p541
g3
tp542
a(g1
S'MAP7'
p543
g3
tp544
a(g1
S'CHAC1'
p545
g3
tp546
a(g1
S'EIF4G1'
p547
g3
tp548
a(g1
S'BTK'
p549
g3
tp550
a(g1
S'GNAS'
p551
g3
tp552
a(g1
S'MYL9'
p553
g3
tp554
a(g1
S'TEX10'
p555
g3
tp556
a(g1
S'PSMD2'
p557
g3
tp558
a(g1
S'ZNF586'
p559
g3
tp560
a(g1
S'CLTC'
p561
g3
tp562
a(g1
S'IKZF1'
p563
g3
tp564
a(g1
S'APBB2'
p565
g3
tp566
a(g1
S'HSD17B10'
p567
g3
tp568
a(g1
S'RNF167'
p569
g3
tp570
a(g1
S'STX1A'
p571
g3
tp572
a(g1
S'ALDOA'
p573
g3
tp574
a(g1
S'EPHA3'
p575
g3
tp576
a(g1
S'STAT5B'
p577
g3
tp578
a(g1
S'TXNDC9'
p579
g3
tp580
a(g1
S'CCNA2'
p581
g3
tp582
a(g1
S'VGLL4'
p583
g3
tp584
a(g1
S'CASP10'
p585
g3
tp586
a(g1
S'SDHB'
p587
g3
tp588
a(g1
S'ETS1'
p589
g3
tp590
a(g1
S'YTHDF1'
p591
g3
tp592
a(g1
S'FOXO4'
p593
g3
tp594
a(g1
S'LSM5'
p595
g3
tp596
a(g1
S'TOMM34'
p597
g3
tp598
a(g1
S'ZMYM2'
p599
g3
tp600
a(g1
S'CHMP6'
p601
g3
tp602
a(g1
S'KIAA0907'
p603
g3
tp604
a(g1
S'CASP7'
p605
g3
tp606
a(g1
S'HK1'
p607
g3
tp608
a(g1
S'PAPD7'
p609
g3
tp610
a(g1
S'PIGB'
p611
g3
tp612
a(g1
S'CHEK2'
p613
g3
tp614
a(g1
S'PLOD3'
p615
g3
tp616
a(g1
S'ACD'
p617
g3
tp618
a(g1
S'TRAK2'
p619
g3
tp620
a(g1
S'SUPV3L1'
p621
g3
tp622
a(g1
S'VAPB'
p623
g3
tp624
a(g1
S'GPATCH8'
p625
g3
tp626
a(g1
S'HSPD1'
p627
g3
tp628
a(g1
S'BUB1B'
p629
g3
tp630
a(g1
S'TGFBR2'
p631
g3
tp632
a(g1
S'MRPL12'
p633
g3
tp634
a(g1
S'NOTCH1'
p635
g3
tp636
a(g1
S'PNP'
p637
g3
tp638
a(g1
S'SHC1'
p639
g3
tp640
a(g1
S'ARPP19'
p641
g3
tp642
a(g1
S'CEBPA'
p643
g3
tp644
a(g1
S'PSMF1'
p645
g3
tp646
a(g1
S'RTN2'
p647
g3
tp648
a(g1
S'NPEPL1'
p649
g3
tp650
a(g1
S'USP1'
p651
g3
tp652
a(g1
S'RPA1'
p653
g3
tp654
a(g1
S'SIRT3'
p655
g3
tp656
a(g1
S'KLHDC2'
p657
g3
tp658
a(g1
S'UBQLN2'
p659
g3
tp660
a(g1
S'DMTF1'
p661
g3
tp662
a(g1
S'SCARB1'
p663
g3
tp664
a(g1
S'CLPX'
p665
g3
tp666
a(g1
S'TPM1'
p667
g3
tp668
a(g1
S'TM9SF2'
p669
g3
tp670
a(g1
S'TXNL4B'
p671
g3
tp672
a(g1
S'ATF6'
p673
g3
tp674
a(g1
S'PRR15L'
p675
g3
tp676
a(g1
S'NUP88'
p677
g3
tp678
a(g1
S'ST6GALNAC2'
p679
g3
tp680
a(g1
S'ADH5'
p681
g3
tp682
a(g1
S'FUT1'
p683
g3
tp684
a(g1
S'GOLT1B'
p685
g3
tp686
a(g1
S'PRUNE'
p687
g3
tp688
a(g1
S'PPOX'
p689
g3
tp690
a(g1
S'SYPL1'
p691
g3
tp692
a(g1
S'CANT1'
p693
g3
tp694
a(g1
S'ZNF451'
p695
g3
tp696
a(g1
S'HOMER2'
p697
g3
tp698
a(g1
S'RALB'
p699
g3
tp700
a(g1
S'CLTB'
p701
g3
tp702
a(g1
S'TRIM13'
p703
g3
tp704
a(g1
S'FBXO7'
p705
g3
tp706
a(g1
S'PHKA1'
p707
g3
tp708
a(g1
S'CYCS'
p709
g3
tp710
a(g1
S'PPARD'
p711
g3
tp712
a(g1
S'ENOSF1'
p713
g3
tp714
a(g1
S'MAP4K4'
p715
g3
tp716
a(g1
S'PAN2'
p717
g3
tp718
a(g1
S'STAT3'
p719
g3
tp720
a(g1
S'LIG1'
p721
g3
tp722
a(g1
S'PPIC'
p723
g3
tp724
a(g1
S'EIF5'
p725
g3
tp726
a(g1
S'GNB5'
p727
g3
tp728
a(g1
S'GNAI1'
p729
g3
tp730
a(g1
S'INSIG1'
p731
g3
tp732
a(g1
S'DNMT3A'
p733
g3
tp734
a(g1
S'TM9SF3'
p735
g3
tp736
a(g1
S'CCDC86'
p737
g3
tp738
a(g1
S'HIST2H2BE'
p739
g3
tp740
a(g1
S'S100A4'
p741
g3
tp742
a(g1
S'SLC25A14'
p743
g3
tp744
a(g1
S'KTN1'
p745
g3
tp746
a(g1
S'TBXA2R'
p747
g3
tp748
a(g1
S'ARHGAP1'
p749
g3
tp750
a(g1
S'FBXO11'
p751
g3
tp752
a(g1
S'HERPUD1'
p753
g3
tp754
a(g1
S'LPAR2'
p755
g3
tp756
a(g1
S'COASY'
p757
g3
tp758
a(g1
S'RPL39L'
p759
g3
tp760
a(g1
S'BPHL'
p761
g3
tp762
a(g1
S'RASA1'
p763
g3
tp764
a(g1
S'ATMIN'
p765
g3
tp766
a(g1
S'MAPKAPK3'
p767
g3
tp768
a(g1
S'CASP3'
p769
g3
tp770
a(g1
S'MBOAT7'
p771
g3
tp772
a(g1
S'PNKP'
p773
g3
tp774
a(g1
S'PSME2'
p775
g3
tp776
a(g1
S'NISCH'
p777
g3
tp778
a(g1
S'SLC35A3'
p779
g3
tp780
a(g1
S'CPSF4'
p781
g3
tp782
a(g1
S'LSR'
p783
g3
tp784
a(g1
S'COPB2'
p785
g3
tp786
a(g1
S'MEF2C'
p787
g3
tp788
a(g1
S'GADD45A'
p789
g3
tp790
a(g1
S'KDM5A'
p791
g3
tp792
a(g1
S'FAM63A'
p793
g3
tp794
a(g1
S'SMNDC1'
p795
g3
tp796
a(g1
S'NUDCD3'
p797
g3
tp798
a(g1
S'RAB4A'
p799
g3
tp800
a(g1
S'FGFR2'
p801
g3
tp802
a(g1
S'IFRD2'
p803
g3
tp804
a(g1
S'BACE2'
p805
g3
tp806
a(g1
S'HMGCR'
p807
g3
tp808
a(g1
S'LYN'
p809
g3
tp810
a(g1
S'SLC35B1'
p811
g3
tp812
a(g1
S'ISOC1'
p813
g3
tp814
a(g1
S'TIMP2'
p815
g3
tp816
a(g1
S'DUSP3'
p817
g3
tp818
a(g1
S'LSM6'
p819
g3
tp820
a(g1
S'CALM3'
p821
g3
tp822
a(g1
S'MOK'
p823
g3
tp824
a(g1
S'PPP1R13B'
p825
g3
tp826
a(g1
S'SACM1L'
p827
g3
tp828
a(g1
S'DNAJB2'
p829
g3
tp830
a(g1
S'TCERG1'
p831
g3
tp832
a(g1
S'CERK'
p833
g3
tp834
a(g1
S'KIAA0196'
p835
g3
tp836
a(g1
S'DNM1'
p837
g3
tp838
a(g1
S'LAP3'
p839
g3
tp840
a(g1
S'DDIT4'
p841
g3
tp842
a(g1
S'MAPKAPK5'
p843
g3
tp844
a(g1
S'ALAS1'
p845
g3
tp846
a(g1
S'HDGFRP3'
p847
g3
tp848
a(g1
S'PAFAH1B1'
p849
g3
tp850
a(g1
S'PRKCH'
p851
g3
tp852
a(g1
S'PSRC1'
p853
g3
tp854
a(g1
S'RAB21'
p855
g3
tp856
a(g1
S'ERO1L'
p857
g3
tp858
a(g1
S'PSIP1'
p859
g3
tp860
a(g1
S'APOE'
p861
g3
tp862
a(g1
S'CREB1'
p863
g3
tp864
a(g1
S'MBNL2'
p865
g3
tp866
a(g1
S'RBM15B'
p867
g3
tp868
a(g1
S'PACSIN3'
p869
g3
tp870
a(g1
S'TOMM70A'
p871
g3
tp872
a(g1
S'CBR1'
p873
g3
tp874
a(g1
S'MTA1'
p875
g3
tp876
a(g1
S'MACF1'
p877
g3
tp878
a(g1
S'PRKCD'
p879
g3
tp880
a(g1
S'CCNA1'
p881
g3
tp882
a(g1
S'PIK3R4'
p883
g3
tp884
a(g1
S'CSNK1E'
p885
g3
tp886
a(g1
S'HIST1H2BK'
p887
g3
tp888
a(g1
S'JUN'
p889
g3
tp890
a(g1
S'PCCB'
p891
g3
tp892
a(g1
S'STAP2'
p893
g3
tp894
a(g1
S'TMEM50A'
p895
g3
tp896
a(g1
S'PMM2'
p897
g3
tp898
a(g1
S'SCCPDH'
p899
g3
tp900
a(g1
S'HSD17B11'
p901
g3
tp902
a(g1
S'TSC22D3'
p903
g3
tp904
a(g1
S'FBXL12'
p905
g3
tp906
a(g1
S'TFAP2A'
p907
g3
tp908
a(g1
S'WDR61'
p909
g3
tp910
a(g1
S'ZNF395'
p911
g3
tp912
a(g1
S'FAS'
p913
g3
tp914
a(g1
S'VPS72'
p915
g3
tp916
a(g1
S'CENPE'
p917
g3
tp918
a(g1
S'CLSTN1'
p919
g3
tp920
a(g1
S'CREG1'
p921
g3
tp922
a(g1
S'MAPK9'
p923
g3
tp924
a(g1
S'PRR7'
p925
g3
tp926
a(g1
S'SKP1'
p927
g3
tp928
a(g1
S'POP4'
p929
g3
tp930
a(g1
S'TMEM110'
p931
g3
tp932
a(g1
S'NFE2L2'
p933
g3
tp934
a(g1
S'ZNF589'
p935
g3
tp936
a(g1
S'BAX'
p937
g3
tp938
a(g1
S'BLCAP'
p939
g3
tp940
a(g1
S'CNDP2'
p941
g3
tp942
a(g1
S'FAM20B'
p943
g3
tp944
a(g1
S'PROS1'
p945
g3
tp946
a(g1
S'TNIP1'
p947
g3
tp948
a(g1
S'CRKL'
p949
g3
tp950
a(g1
S'P4HTM'
p951
g3
tp952
a(g1
S'REEP5'
p953
g3
tp954
a(g1
S'ZNF318'
p955
g3
tp956
a(g1
S'BZW2'
p957
g3
tp958
a(g1
S'FDFT1'
p959
g3
tp960
a(g1
S'CGRRF1'
p961
g3
tp962
a(g1
S'TRAP1'
p963
g3
tp964
a(g1
S'AMDHD2'
p965
g3
tp966
a(g1
S'GTF2A2'
p967
g3
tp968
a(g1
S'PEX11A'
p969
g3
tp970
a(g1
S'PSMD9'
p971
g3
tp972
a(g1
S'GFOD1'
p973
g3
tp974
a(g1
S'MTFR1'
p975
g3
tp976
a(g1
S'PECR'
p977
g3
tp978
a(g1
S'UBE2A'
p979
g3
tp980
a(g1
S'NIT1'
p981
g3
tp982
a(g1
S'SOCS2'
p983
g3
tp984
a(g1
S'SYNGR3'
p985
g3
tp986
a(g1
S'ZDHHC6'
p987
g3
tp988
a(g1
S'ITGAE'
p989
g3
tp990
a(g1
S'NFKB2'
p991
g3
tp992
a(g1
S'STK25'
p993
g3
tp994
a(g1
S'TMEM5'
p995
g3
tp996
a(g1
S'ABCF3'
p997
g3
tp998
a(g1
S'ATP5S'
p999
g3
tp1000
a(g1
S'FCHO1'
p1001
g3
tp1002
a(g1
S'NGRN'
p1003
g3
tp1004
a(g1
S'HOXA5'
p1005
g3
tp1006
a(g1
S'OXSR1'
p1007
g3
tp1008
a(g1
S'GRN'
p1009
g3
tp1010
a(g1
S'SMARCC1'
p1011
g3
tp1012
a(g1
S'NUP85'
p1013
g3
tp1014
a(g1
S'PAK6'
p1015
g3
tp1016
a(g1
S'GHR'
p1017
g3
tp1018
a(g1
S'GTPBP8'
p1019
g3
tp1020
a(g1
S'GLOD4'
p1021
g3
tp1022
a(g1
S'PTK2'
p1023
g3
tp1024
a(g1
S'CDK4'
p1025
g3
tp1026
a(g1
S'EPN2'
p1027
g3
tp1028
a(g1
S'CCDC90A'
p1029
g3
tp1030
a(g1
S'IL4R'
p1031
g3
tp1032
a(g1
S'KIAA0528'
p1033
g3
tp1034
a(g1
S'PRKAG2'
p1035
g3
tp1036
a(g1
S'KIT'
p1037
g3
tp1038
a(g1
S'MRPS16'
p1039
g3
tp1040
a(g1
S'PTPRC'
p1041
g3
tp1042
a(g1
S'RPS5'
p1043
g3
tp1044
a(g1
S'NOL3'
p1045
g3
tp1046
a(g1
S'PSMG1'
p1047
g3
tp1048
a(g1
S'NR1H2'
p1049
g3
tp1050
a(g1
S'TMEM97'
p1051
g3
tp1052
a(g1
S'LRRC41'
p1053
g3
tp1054
a(g1
S'PLS1'
p1055
g3
tp1056
a(g1
S'DUSP22'
p1057
g3
tp1058
a(g1
S'KIAA1279'
p1059
g3
tp1060
a(g1
S'RPS6KA1'
p1061
g3
tp1062
a(g1
S'TCEAL4'
p1063
g3
tp1064
a(g1
S'DCK'
p1065
g3
tp1066
a(g1
S'NUP133'
p1067
g3
tp1068
a(g1
S'NUP62'
p1069
g3
tp1070
a(g1
S'TRIM2'
p1071
g3
tp1072
a(g1
S'SNCA'
p1073
g3
tp1074
a(g1
S'SPTAN1'
p1075
g3
tp1076
a(g1
S'MALT1'
p1077
g3
tp1078
a(g1
S'VPS28'
p1079
g3
tp1080
a(g1
S'LRRC16A'
p1081
g3
tp1082
a(g1
S'YKT6'
p1083
g3
tp1084
a(g1
S'CHP'
p1085
g3
tp1086
a(g1
S'KIF2C'
p1087
g3
tp1088
a(g1
S'NNT'
p1089
g3
tp1090
a(g1
S'NR2F6'
p1091
g3
tp1092
a(g1
S'COL1A1'
p1093
g3
tp1094
a(g1
S'EXOSC4'
p1095
g3
tp1096
a(g1
S'CDC25A'
p1097
g3
tp1098
a(g1
S'PDLIM1'
p1099
g3
tp1100
a(g1
S'CRELD2'
p1101
g3
tp1102
a(g1
S'TP53'
p1103
g3
tp1104
a(g1
S'IQGAP1'
p1105
g3
tp1106
a(g1
S'RRP12'
p1107
g3
tp1108
a(g1
S'ACAT2'
p1109
g3
tp1110
a(g1
S'EGR1'
p1111
g3
tp1112
a(g1
S'MUC1'
p1113
g3
tp1114
a(g1
S'THAP11'
p1115
g3
tp1116
a(g1
S'AURKB'
p1117
g3
tp1118
a(g1
S'CEBPD'
p1119
g3
tp1120
a(g1
S'HSPA4'
p1121
g3
tp1122
a(g1
S'MAST2'
p1123
g3
tp1124
a(g1
S'DHDDS'
p1125
g3
tp1126
a(g1
S'TOP2A'
p1127
g3
tp1128
a(g1
S'GADD45B'
p1129
g3
tp1130
a(g1
S'NCK2'
p1131
g3
tp1132
a(g1
S'AURKA'
p1133
g3
tp1134
a(g1
S'KIAA0355'
p1135
g3
tp1136
a(g1
S'B3GNT1'
p1137
g3
tp1138
a(g1
S'DYNLT3'
p1139
g3
tp1140
a(g1
S'CDK5R1'
p1141
g3
tp1142
a(g1
S'CHMP4A'
p1143
g3
tp1144
a(g1
S'IPO13'
p1145
g3
tp1146
a(g1
S'SCP2'
p1147
g3
tp1148
a(g1
S'ITFG1'
p1149
g3
tp1150
a(g1
S'RAD9A'
p1151
g3
tp1152
a(g1
S'DRAP1'
p1153
g3
tp1154
a(g1
S'SPP1'
p1155
g3
tp1156
a(g1
S'HYOU1'
p1157
g3
tp1158
a(g1
S'PCMT1'
p1159
g3
tp1160
a(g1
S'FOS'
p1161
g3
tp1162
a(g1
S'FYN'
p1163
g3
tp1164
a(g1
S'MCOLN1'
p1165
g3
tp1166
a(g1
S'MYC'
p1167
g3
tp1168
a(g1
S'ID2'
p1169
g3
tp1170
a(g1
S'POLB'
p1171
g3
tp1172
a(g1
S'CETN3'
p1173
g3
tp1174
a(g1
S'KCNK1'
p1175
g3
tp1176
a(g1
S'AXIN1'
p1177
g3
tp1178
a(g1
S'SMC4'
p1179
g3
tp1180
a(g1
S'RAI14'
p1181
g3
tp1182
a(g1
S'SMARCD2'
p1183
g3
tp1184
a(g1
S'DNAJC15'
p1185
g3
tp1186
a(g1
S'MPZL1'
p1187
g3
tp1188
a(g1
S'HOXA10'
p1189
g3
tp1190
a(g1
S'NRAS'
p1191
g3
tp1192
a(g1
S'CASP2'
p1193
g3
tp1194
a(g1
S'EBNA1BP2'
p1195
g3
tp1196
a(g1
S'CTNND1'
p1197
g3
tp1198
a(g1
S'TATDN2'
p1199
g3
tp1200
a(g1
S'LRPAP1'
p1201
g3
tp1202
a(g1
S'ZNF131'
p1203
g3
tp1204
a(g1
S'BNIP3L'
p1205
g3
tp1206
a(g1
S'HOOK2'
p1207
g3
tp1208
a(g1
S'ERBB2'
p1209
g3
tp1210
a(g1
S'TBPL1'
p1211
g3
tp1212
a(g1
S'INTS3'
p1213
g3
tp1214
a(g1
S'RAE1'
p1215
g3
tp1216
a(g1
S'CDK1'
p1217
g3
tp1218
a(g1
S'RFNG'
p1219
g3
tp1220
a(g1
S'MICALL1'
p1221
g3
tp1222
a(g1
S'SLC35A1'
p1223
g3
tp1224
a(g1
S'KLHL21'
p1225
g3
tp1226
a(g1
S'NIPSNAP1'
p1227
g3
tp1228
a(g1
S'BCL7B'
p1229
g3
tp1230
a(g1
S'TLE1'
p1231
g3
tp1232
a(g1
S'FZD7'
p1233
g3
tp1234
a(g1
S'TIMELESS'
p1235
g3
tp1236
a(g1
S'COG2'
p1237
g3
tp1238
a(g1
S'DHX29'
p1239
g3
tp1240
a(g1
S'MMP2'
p1241
g3
tp1242
a(g1
S'MRPS2'
p1243
g3
tp1244
a(g1
S'KCTD5'
p1245
g3
tp1246
a(g1
S'TCEA2'
p1247
g3
tp1248
a(g1
S'CNPY3'
p1249
g3
tp1250
a(g1
S'FHL2'
p1251
g3
tp1252
a(g1
S'ADAM10'
p1253
g3
tp1254
a(g1
S'FKBP4'
p1255
g3
tp1256
a(g1
S'CD58'
p1257
g3
tp1258
a(g1
S'KAT6A'
p1259
g3
tp1260
a(g1
S'CDK7'
p1261
g3
tp1262
a(g1
S'KIF5C'
p1263
g3
tp1264
a(g1
S'HMG20B'
p1265
g3
tp1266
a(g1
S'MAP3K4'
p1267
g3
tp1268
a(g1
S'PIN1'
p1269
g3
tp1270
a(g1
S'ZFP36'
p1271
g3
tp1272
a(g1
S'INPP1'
p1273
g3
tp1274
a(g1
S'LAGE3'
p1275
g3
tp1276
a(g1
S'RAC2'
p1277
g3
tp1278
a(g1
S'TNFRSF21'
p1279
g3
tp1280
a(g1
S'HMOX1'
p1281
g3
tp1282
a(g1
S'KIF14'
p1283
g3
tp1284
a(g1
S'COL4A1'
p1285
g3
tp1286
a(g1
S'DUSP6'
p1287
g3
tp1288
a(g1
S'CYB561'
p1289
g3
tp1290
a(g1
S'EPB41L2'
p1291
g3
tp1292
a(g1
S'GNAI2'
p1293
g3
tp1294
a(g1
S'HTRA1'
p1295
g3
tp1296
a(g1
S'TSTA3'
p1297
g3
tp1298
a(g1
S'WASF3'
p1299
g3
tp1300
a(g1
S'DNMT1'
p1301
g3
tp1302
a(g1
S'TSPAN6'
p1303
g3
tp1304
a(g1
S'FBXO21'
p1305
g3
tp1306
a(g1
S'RAB27A'
p1307
g3
tp1308
a(g1
S'DDR1'
p1309
g3
tp1310
a(g1
S'PPP2R3C'
p1311
g3
tp1312
a(g1
S'ADRB2'
p1313
g3
tp1314
a(g1
S'LPGAT1'
p1315
g3
tp1316
a(g1
S'DUSP11'
p1317
g3
tp1318
a(g1
S'GRB10'
p1319
g3
tp1320
a(g1
S'MMP1'
p1321
g3
tp1322
a(g1
S'TP53BP2'
p1323
g3
tp1324
a(g1
S'CDKN1A'
p1325
g3
tp1326
a(g1
S'ZW10'
p1327
g3
tp1328
a(g1
S'CORO1A'
p1329
g3
tp1330
a(g1
S'TJP1'
p1331
g3
tp1332
a(g1
S'ABCB6'
p1333
g3
tp1334
a(g1
S'XPNPEP1'
p1335
g3
tp1336
a(g1
S'MAMLD1'
p1337
g3
tp1338
a(g1
S'MTHFD2'
p1339
g3
tp1340
a(g1
S'DSG2'
p1341
g3
tp1342
a(g1
S'PRAF2'
p1343
g3
tp1344
a(g1
S'DNTTIP2'
p1345
g3
tp1346
a(g1
S'SLC27A3'
p1347
g3
tp1348
a(g1
S'CD97'
p1349
g3
tp1350
a(g1
S'HTATSF1'
p1351
g3
tp1352
a(g1
S'IL13RA1'
p1353
g3
tp1354
a(g1
S'NCAPD2'
p1355
g3
tp1356
a(g1
S'AGL'
p1357
g3
tp1358
a(g1
S'TMEM109'
p1359
g3
tp1360
a(g1
S'CDC25B'
p1361
g3
tp1362
a(g1
S'ICAM1'
p1363
g3
tp1364
a(g1
S'GATA3'
p1365
g3
tp1366
a(g1
S'NUP93'
p1367
g3
tp1368
a(g1
S'PLA2G15'
p1369
g3
tp1370
a(g1
S'RPA3'
p1371
g3
tp1372
a(g1
S'PIP4K2B'
p1373
g3
tp1374
a(g1
S'TES'
p1375
g3
tp1376
a(g1
S'MYCBP2'
p1377
g3
tp1378
a(g1
S'SPR'
p1379
g3
tp1380
a(g1
S'PGRMC1'
p1381
g3
tp1382
a(g1
S'RELB'
p1383
g3
tp1384
a(g1
S'AARS'
p1385
g3
tp1386
a(g1
S'EPHB2'
p1387
g3
tp1388
a(g1
S'GPC1'
p1389
g3
tp1390
a(g1
S'RPIA'
p1391
g3
tp1392
a(g1
S'ELAC2'
p1393
g3
tp1394
a(g1
S'GPR56'
p1395
g3
tp1396
a(g1
S'NVL'
p1397
g3
tp1398
a(g1
S'PLSCR1'
p1399
g3
tp1400
a(g1
S'CHEK1'
p1401
g3
tp1402
a(g1
S'CTSL1'
p1403
g3
tp1404
a(g1
S'CTSD'
p1405
g3
tp1406
a(g1
S'ME2'
p1407
g3
tp1408
a(g1
S'ARHGEF2'
p1409
g3
tp1410
a(g1
S'PDGFA'
p1411
g3
tp1412
a(g1
S'ILK'
p1413
g3
tp1414
a(g1
S'WDR67'
p1415
g3
tp1416
a(g1
S'NFIL3'
p1417
g3
tp1418
a(g1
S'RFC2'
p1419
g3
tp1420
a(g1
S'ARL4C'
p1421
g3
tp1422
a(g1
S'TIMM9'
p1423
g3
tp1424
a(g1
S'CPNE3'
p1425
g3
tp1426
a(g1
S'ORC1'
p1427
g3
tp1428
a(g1
S'C5'
p1429
g3
tp1430
a(g1
S'PARP2'
p1431
g3
tp1432
a(g1
S'FASTKD5'
p1433
g3
tp1434
a(g1
S'SCRN1'
p1435
g3
tp1436
a(g1
S'MAN2B1'
p1437
g3
tp1438
a(g1
S'PTPLAD1'
p1439
g3
tp1440
a(g1
S'MSRA'
p1441
g3
tp1442
a(g1
S'NFKBIA'
p1443
g3
tp1444
a(g1
S'DCTD'
p1445
g3
tp1446
a(g1
S'SYNE2'
p1447
g3
tp1448
a(g1
S'MBNL1'
p1449
g3
tp1450
a(g1
S'UBE3C'
p1451
g3
tp1452
a(g1
S'CCDC92'
p1453
g3
tp1454
a(g1
S'MYCBP'
p1455
g3
tp1456
a(g1
S'CXCL2'
p1457
g3
tp1458
a(g1
S'PTPN1'
p1459
g3
tp1460
a(g1
S'BRP44'
p1461
g3
tp1462
a(g1
S'TIMM22'
p1463
g3
tp1464
a(g1
S'ATF5'
p1465
g3
tp1466
a(g1
S'ECD'
p1467
g3
tp1468
a(g1
S'CIRBP'
p1469
g3
tp1470
a(g1
S'NSDHL'
p1471
g3
tp1472
a(g1
S'ADI1'
p1473
g3
tp1474
a(g1
S'NFKBIE'
p1475
g3
tp1476
a(g1
S'ADCK3'
p1477
g3
tp1478
a(g1
S'PRSS23'
p1479
g3
tp1480
a(g1
S'CCNH'
p1481
g3
tp1482
a(g1
S'GDPD5'
p1483
g3
tp1484
a(g1
S'P4HA2'
p1485
g3
tp1486
a(g1
S'TARBP1'
p1487
g3
tp1488
a(g1
S'ATP6V0B'
p1489
g3
tp1490
a(g1
S'RBKS'
p1491
g3
tp1492
a(g1
S'CAPN1'
p1493
g3
tp1494
a(g1
S'KDM3A'
p1495
g3
tp1496
a(g1
S'BID'
p1497
g3
tp1498
a(g1
S'STXBP1'
p1499
g3
tp1500
a(g1
S'ITGB5'
p1501
g3
tp1502
a(g1
S'MTF2'
p1503
g3
tp1504
a(g1
S'HLA-DRA'
p1505
g3
tp1506
a(g1
S'SLC11A2'
p1507
g3
tp1508
a(g1
S'PDIA5'
p1509
g3
tp1510
a(g1
S'PIK3C2B'
p1511
g3
tp1512
a(g1
S'RAP1GAP'
p1513
g3
tp1514
a(g1
S'SLC25A46'
p1515
g3
tp1516
a(g1
S'CDK19'
p1517
g3
tp1518
a(g1
S'NOLC1'
p1519
g3
tp1520
a(g1
S'CAT'
p1521
g3
tp1522
a(g1
S'KIAA0753'
p1523
g3
tp1524
a(g1
S'DUSP14'
p1525
g3
tp1526
a(g1
S'KAT6B'
p1527
g3
tp1528
a(g1
S'CHN1'
p1529
g3
tp1530
a(g1
S'HMGA2'
p1531
g3
tp1532
a(g1
S'IGFBP3'
p1533
g3
tp1534
a(g1
S'MAPK13'
p1535
g3
tp1536
a(g1
S'TRIB1'
p1537
g3
tp1538
a(g1
S'UFM1'
p1539
g3
tp1540
a(g1
S'GNA15'
p1541
g3
tp1542
a(g1
S'TP53BP1'
p1543
g3
tp1544
a(g1
S'FRS2'
p1545
g3
tp1546
a(g1
S'IARS2'
p1547
g3
tp1548
a(g1
S'BECN1'
p1549
g3
tp1550
a(g1
S'GATA2'
p1551
g3
tp1552
a(g1
S'KDELR2'
p1553
g3
tp1554
a(g1
S'RALGDS'
p1555
g3
tp1556
a(g1
S'ELAVL1'
p1557
g3
tp1558
a(g1
S'NRIP1'
p1559
g3
tp1560
a(g1
S'CCNB2'
p1561
g3
tp1562
a(g1
S'IFNAR1'
p1563
g3
tp1564
a(g1
S'MIF'
p1565
g3
tp1566
a(g1
S'RNPS1'
p1567
g3
tp1568
a(g1
S'DAG1'
p1569
g3
tp1570
a(g1
S'SATB1'
p1571
g3
tp1572
a(g1
S'ARID4B'
p1573
g3
tp1574
a(g1
S'IGF2BP2'
p1575
g3
tp1576
a(g1
S'GSTZ1'
p1577
g3
tp1578
a(g1
S'IGF2R'
p1579
g3
tp1580
a(g1
S'SESN1'
p1581
g3
tp1582
a(g1
S'TIPARP'
p1583
g3
tp1584
a(g1
S'CRTAP'
p1585
g3
tp1586
a(g1
S'SPEN'
p1587
g3
tp1588
a(g1
S'GMNN'
p1589
g3
tp1590
a(g1
S'PFKL'
p1591
g3
tp1592
a(g1
S'CYTH1'
p1593
g3
tp1594
a(g1
S'PDHX'
p1595
g3
tp1596
a(g1
S'DENND2D'
p1597
g3
tp1598
a(g1
S'PRCP'
p1599
g3
tp1600
a(g1
S'CTTN'
p1601
g3
tp1602
a(g1
S'SMARCA4'
p1603
g3
tp1604
a(g1
S'PYGL'
p1605
g3
tp1606
a(g1
S'UBR7'
p1607
g3
tp1608
a(g1
S'GRB7'
p1609
g3
tp1610
a(g1
S'RPA2'
p1611
g3
tp1612
a(g1
S'CD44'
p1613
g3
tp1614
a(g1
S'ERBB3'
p1615
g3
tp1616
a(g1
S'GTF2E2'
p1617
g3
tp1618
a(g1
S'VAV3'
p1619
g3
tp1620
a(g1
S'ABHD6'
p1621
g3
tp1622
a(g1
S'ANXA7'
p1623
g3
tp1624
a(g1
S'MAPKAPK2'
p1625
g3
tp1626
a(g1
S'TXNRD1'
p1627
g3
tp1628
a(g1
S'CAB39'
p1629
g3
tp1630
a(g1
S'FZD1'
p1631
g3
tp1632
a(g1
S'CRYZ'
p1633
g3
tp1634
a(g1
S'TIAM1'
p1635
g3
tp1636
a(g1
S'DNM1L'
p1637
g3
tp1638
a(g1
S'GAA'
p1639
g3
tp1640
a(g1
S'DERA'
p1641
g3
tp1642
a(g1
S'SKIV2L'
p1643
g3
tp1644
a(g1
S'BLMH'
p1645
g3
tp1646
a(g1
S'PTPRK'
p1647
g3
tp1648
a(g1
S'HERC6'
p1649
g3
tp1650
a(g1
S'RRP1B'
p1651
g3
tp1652
a(g1
S'MKNK1'
p1653
g3
tp1654
a(g1
S'TSPAN3'
p1655
g3
tp1656
a(g1
S'ACOT9'
p1657
g3
tp1658
a(g1
S'PIK3R3'
p1659
g3
tp1660
a(g1
S'KEAP1'
p1661
g3
tp1662
a(g1
S'ST3GAL5'
p1663
g3
tp1664
a(g1
S'CTNNAL1'
p1665
g3
tp1666
a(g1
S'TFDP1'
p1667
g3
tp1668
a(g1
S'ABHD4'
p1669
g3
tp1670
a(g1
S'SMC3'
p1671
g3
tp1672
a(g1
S'INPP4B'
p1673
g3
tp1674
a(g1
S'LBR'
p1675
g3
tp1676
a(g1
S'PPIE'
p1677
g3
tp1678
a(g1
S'ZMIZ1'
p1679
g3
tp1680
a(g1
S'PPARG'
p1681
g3
tp1682
a(g1
S'TERF2IP'
p1683
g3
tp1684
a(g1
S'BNIP3'
p1685
g3
tp1686
a(g1
S'RPP38'
p1687
g3
tp1688
a(g1
S'BCL2'
p1689
g3
tp1690
a(g1
S'CAST'
p1691
g3
tp1692
a(g1
S'BAG3'
p1693
g3
tp1694
a(g1
S'RBM6'
p1695
g3
tp1696
a(g1
S'CSK'
p1697
g3
tp1698
a(g1
S'GNA11'
p1699
g3
tp1700
a(g1
S'ALDOC'
p1701
g3
tp1702
a(g1
S'TOR1A'
p1703
g3
tp1704
a(g1
S'SLC25A13'
p1705
g3
tp1706
a(g1
S'UBE2L6'
p1707
g3
tp1708
a(g1
S'SYK'
p1709
g3
tp1710
a(g1
S'TSPAN4'
p1711
g3
tp1712
a(g1
S'NR3C1'
p1713
g3
tp1714
a(g1
S'PCBD1'
p1715
g3
tp1716
a(g1
S'ICMT'
p1717
g3
tp1718
a(g1
S'TRIB3'
p1719
g3
tp1720
a(g1
S'EIF4EBP1'
p1721
g3
tp1722
a(g1
S'PHF15'
p1723
g3
tp1724
a(g1
S'CXCR4'
p1725
g3
tp1726
a(g1
S'GNPDA1'
p1727
g3
tp1728
a(g1
S'CCND3'
p1729
g3
tp1730
a(g1
S'FKBP14'
p1731
g3
tp1732
a(g1
S'CIAPIN1'
p1733
g3
tp1734
a(g1
S'NUCB2'
p1735
g3
tp1736
a(g1
S'COG7'
p1737
g3
tp1738
a(g1
S'RSU1'
p1739
g3
tp1740
a(g1
S'PTPN6'
p1741
g3
tp1742
a(g1
S'TUBB6'
p1743
g3
tp1744
a(g1
S'ABL1'
p1745
g3
tp1746
a(g1
S'DUSP4'
p1747
g3
tp1748
a(g1
S'CCNF'
p1749
g3
tp1750
a(g1
S'PTPN12'
p1751
g3
tp1752
a(g1
S'HSPA1A'
p1753
g3
tp1754
a(g1
S'PCK2'
p1755
g3
tp1756
a(g1
S'FAM57A'
p1757
g3
tp1758
a(g1
S'RB1'
p1759
g3
tp1760
a(g1
S'EVL'
p1761
g3
tp1762
a(g1
S'GFPT1'
p1763
g3
tp1764
a(g1
S'BLVRA'
p1765
g3
tp1766
a(g1
S'GPER'
p1767
g3
tp1768
a(g1
S'EAPP'
p1769
g3
tp1770
a(g1
S'S100A13'
p1771
g3
tp1772
a(g1
S'EXT1'
p1773
g3
tp1774
a(g1
S'MYBL2'
p1775
g3
tp1776
a(g1
S'POLE2'
p1777
g3
tp1778
a(g1
S'STX4'
p1779
g3
tp1780
a(g1
S'PLCB3'
p1781
g3
tp1782
a(g1
S'TMCO1'
p1783
g3
tp1784
a(g1
S'C2CD2'
p1785
g3
tp1786
a(g1
S'PARP1'
p1787
g3
tp1788
a(g1
S'ANKRD10'
p1789
g3
tp1790
a(g1
S'CCDC85B'
p1791
g3
tp1792
a(g1
S'DDB2'
p1793
g3
tp1794
a(g1
S'DDX10'
p1795
g3
tp1796
a(g1
S'BAMBI'
p1797
g3
tp1798
a(g1
S'CEP57'
p1799
g3
tp1800
a(g1
S'HADH'
p1801
g3
tp1802
a(g1
S'RAB31'
p1803
g3
tp1804
a(g1
S'ABCC5'
p1805
g3
tp1806
a(g1
S'GLRX'
p1807
g3
tp1808
a(g1
S'MVP'
p1809
g3
tp1810
a(g1
S'RFC5'
p1811
g3
tp1812
a(g1
S'HES1'
p1813
g3
tp1814
a(g1
S'STMN1'
p1815
g3
tp1816
a(g1
S'GALE'
p1817
g3
tp1818
a(g1
S'KLHL9'
p1819
g3
tp1820
a(g1
S'PTPRF'
p1821
g3
tp1822
a(g1
S'UBE2J1'
p1823
g3
tp1824
a(g1
S'PGM1'
p1825
g3
tp1826
a(g1
S'SLC37A4'
p1827
g3
tp1828
a(g1
S'LOXL1'
p1829
g3
tp1830
a(g1
S'PLK1'
p1831
g3
tp1832
a(g1
S'MYO10'
p1833
g3
tp1834
a(g1
S'NPRL2'
p1835
g3
tp1836
a(g1
S'LIPA'
p1837
g3
tp1838
a(g1
S'PWP1'
p1839
g3
tp1840
a(g1
S'PHGDH'
p1841
g3
tp1842
a(g1
S'PLEKHM1'
p1843
g3
tp1844
a(g1
S'ST7'
p1845
g3
tp1846
a(g1
S'VAT1'
p1847
g3
tp1848
a(g1
S'IKBKB'
p1849
g3
tp1850
a(g1
S'KIF20A'
p1851
g3
tp1852
a(g1
S'CDH3'
p1853
g3
tp1854
a(g1
S'PCM1'
p1855
g3
tp1856
a(g1
S'IER3'
p1857
g3
tp1858
a(g1
S'SSBP2'
p1859
g3
tp1860
a(g1
S'FAT1'
p1861
g3
tp1862
a(g1
S'SNX11'
p1863
g3
tp1864
a(g1
S'RNMT'
p1865
g3
tp1866
a(g1
S'SFN'
p1867
g3
tp1868
a(g1
S'EGFR'
p1869
g3
tp1870
a(g1
S'RFX5'
p1871
g3
tp1872
a(g1
S'NET1'
p1873
g3
tp1874
a(g1
S'PKIG'
p1875
g3
tp1876
a(g1
S'DECR1'
p1877
g3
tp1878
a(g1
S'FSD1'
p1879
g3
tp1880
a(g1
S'ATP6V1D'
p1881
g3
tp1882
a(g1
S'CDK6'
p1883
g3
tp1884
a(g1
S'CDC45'
p1885
g3
tp1886
a(g1
S'NPC1'
p1887
g3
tp1888
a(g1
S'EDEM1'
p1889
g3
tp1890
a(g1
S'MEST'
p1891
g3
tp1892
a(g1
S'MYLK'
p1893
g3
tp1894
a(g1
S'PAFAH1B3'
p1895
g3
tp1896
a(g1
S'CALU'
p1897
g3
tp1898
a(g1
S'USP6NL'
p1899
g3
tp1900
a(g1
S'LGALS8'
p1901
g3
tp1902
a(g1
S'NT5DC2'
p1903
g3
tp1904
a(g1
S'CCP110'
p1905
g3
tp1906
a(g1
S'LRP10'
p1907
g3
tp1908
a(g1
S'ATP1B1'
p1909
g3
tp1910
a(g1
S'STK10'
p1911
g3
tp1912
a(g1
S'OXCT1'
p1913
g3
tp1914
a(g1
S'UGDH'
p1915
g3
tp1916
a(g1
S'SLC25A4'
p1917
g3
tp1918
a(g1
S'SQRDL'
p1919
g3
tp1920
a(g1
S'HEBP1'
p1921
g3
tp1922
a(g1
S'PSMB10'
p1923
g3
tp1924
a(g1
S'ASCC3'
p1925
g3
tp1926
a(g1
S'FGFR4'
p1927
g3
tp1928
a(g1
S'CDKN2A'
p1929
g3
tp1930
a(g1
S'TRAM2'
p1931
g3
tp1932
a(g1
S'ATP11B'
p1933
g3
tp1934
a(g1
S'PYCR1'
p1935
g3
tp1936
a(g1
S'CD320'
p1937
g3
tp1938
a(g1
S'NCOA3'
p1939
g3
tp1940
a(g1
S'CDKN1B'
p1941
g3
tp1942
a(g1
S'POLD4'
p1943
g3
tp1944
a(g1
S'FOSL1'
p1945
g3
tp1946
a(g1
S'MLLT11'
p1947
g3
tp1948
a(g1
S'CEBPZ'
p1949
g3
tp1950
a(g1
S'PRKACA'
p1951
g3
tp1952
a(g1
S'GAPDH'
p1953
g3
tp1954
a(g1
S'CBR3'
p1955
g3
tp1956
a(g1
S'LYRM1'
p1957
g3
tp1958
a(S'A375'
p1959
g2
g3
tp1960
a(g1959
g5
g3
tp1961
a(g1959
g7
g3
tp1962
a(g1959
g9
g3
tp1963
a(g1959
g11
g3
tp1964
a(g1959
g13
g3
tp1965
a(g1959
g15
g3
tp1966
a(g1959
g17
g3
tp1967
a(g1959
g19
g3
tp1968
a(g1959
g21
g3
tp1969
a(g1959
g23
g3
tp1970
a(g1959
g25
g3
tp1971
a(g1959
g27
g3
tp1972
a(g1959
g29
g3
tp1973
a(g1959
g31
g3
tp1974
a(g1959
g33
g3
tp1975
a(g1959
g35
g3
tp1976
a(g1959
g37
g3
tp1977
a(g1959
g39
g3
tp1978
a(g1959
g41
g3
tp1979
a(g1959
g43
g3
tp1980
a(g1959
g45
g3
tp1981
a(g1959
g47
g3
tp1982
a(g1959
g49
g3
tp1983
a(g1959
g51
g3
tp1984
a(g1959
g53
g3
tp1985
a(g1959
g55
g3
tp1986
a(g1959
g57
g3
tp1987
a(g1959
g59
g3
tp1988
a(g1959
g61
g3
tp1989
a(g1959
g63
g3
tp1990
a(g1959
g65
g3
tp1991
a(g1959
g67
g3
tp1992
a(g1959
g69
g3
tp1993
a(g1959
g71
g3
tp1994
a(g1959
g73
g3
tp1995
a(g1959
g75
g3
tp1996
a(g1959
g77
g3
tp1997
a(g1959
g79
g3
tp1998
a(g1959
g81
g3
tp1999
a(g1959
g83
g3
tp2000
a(g1959
g85
g3
tp2001
a(g1959
g87
g3
tp2002
a(g1959
g89
g3
tp2003
a(g1959
g91
g3
tp2004
a(g1959
g93
g3
tp2005
a(g1959
g95
g3
tp2006
a(g1959
g97
g3
tp2007
a(g1959
g99
g3
tp2008
a(g1959
g101
g3
tp2009
a(g1959
g103
g3
tp2010
a(g1959
g105
g3
tp2011
a(g1959
g107
g3
tp2012
a(g1959
g109
g3
tp2013
a(g1959
g111
g3
tp2014
a(g1959
g113
g3
tp2015
a(g1959
g115
g3
tp2016
a(g1959
g117
g3
tp2017
a(g1959
g119
g3
tp2018
a(g1959
g121
g3
tp2019
a(g1959
g123
g3
tp2020
a(g1959
g125
g3
tp2021
a(g1959
g127
g3
tp2022
a(g1959
g129
g3
tp2023
a(g1959
g131
g3
tp2024
a(g1959
g133
g3
tp2025
a(g1959
g135
g3
tp2026
a(g1959
g137
g3
tp2027
a(g1959
g139
g3
tp2028
a(g1959
g141
g3
tp2029
a(g1959
g143
g3
tp2030
a(g1959
g145
g3
tp2031
a(g1959
g147
g3
tp2032
a(g1959
g149
g3
tp2033
a(g1959
g151
g3
tp2034
a(g1959
g153
g3
tp2035
a(g1959
g155
g3
tp2036
a(g1959
g157
g3
tp2037
a(g1959
g159
g3
tp2038
a(g1959
g161
g3
tp2039
a(g1959
g163
g3
tp2040
a(g1959
g165
g3
tp2041
a(g1959
g167
g3
tp2042
a(g1959
g169
g3
tp2043
a(g1959
g171
g3
tp2044
a(g1959
g173
g3
tp2045
a(g1959
g175
g3
tp2046
a(g1959
g177
g3
tp2047
a(g1959
g179
g3
tp2048
a(g1959
g181
g3
tp2049
a(g1959
g183
g3
tp2050
a(g1959
g185
g3
tp2051
a(g1959
g187
g3
tp2052
a(g1959
g189
g3
tp2053
a(g1959
g191
g3
tp2054
a(g1959
g193
g3
tp2055
a(g1959
g195
g3
tp2056
a(g1959
g197
g3
tp2057
a(g1959
g199
g3
tp2058
a(g1959
g201
g3
tp2059
a(g1959
g203
g3
tp2060
a(g1959
g205
g3
tp2061
a(g1959
g207
g3
tp2062
a(g1959
g209
g3
tp2063
a(g1959
g211
g3
tp2064
a(g1959
g213
g3
tp2065
a(g1959
g215
g3
tp2066
a(g1959
g217
g3
tp2067
a(g1959
g219
g3
tp2068
a(g1959
g221
g3
tp2069
a(g1959
g223
g3
tp2070
a(g1959
g225
g3
tp2071
a(g1959
g227
g3
tp2072
a(g1959
g229
g3
tp2073
a(g1959
g231
g3
tp2074
a(g1959
g233
g3
tp2075
a(g1959
g235
g3
tp2076
a(g1959
g237
g3
tp2077
a(g1959
g239
g3
tp2078
a(g1959
g241
g3
tp2079
a(g1959
g243
g3
tp2080
a(g1959
g245
g3
tp2081
a(g1959
g247
g3
tp2082
a(g1959
g249
g3
tp2083
a(g1959
g251
g3
tp2084
a(g1959
g253
g3
tp2085
a(g1959
g255
g3
tp2086
a(g1959
g257
g3
tp2087
a(g1959
g259
g3
tp2088
a(g1959
g261
g3
tp2089
a(g1959
g263
g3
tp2090
a(g1959
g265
g3
tp2091
a(g1959
g267
g3
tp2092
a(g1959
g269
g3
tp2093
a(g1959
g271
g3
tp2094
a(g1959
g273
g3
tp2095
a(g1959
g275
g3
tp2096
a(g1959
g277
g3
tp2097
a(g1959
g279
g3
tp2098
a(g1959
g281
g3
tp2099
a(g1959
g283
g3
tp2100
a(g1959
g285
g3
tp2101
a(g1959
g287
g3
tp2102
a(g1959
g289
g3
tp2103
a(g1959
g291
g3
tp2104
a(g1959
g293
g3
tp2105
a(g1959
g295
g3
tp2106
a(g1959
g297
g3
tp2107
a(g1959
g299
g3
tp2108
a(g1959
g301
g3
tp2109
a(g1959
g303
g3
tp2110
a(g1959
g305
g3
tp2111
a(g1959
g307
g3
tp2112
a(g1959
g309
g3
tp2113
a(g1959
g311
g3
tp2114
a(g1959
g313
g3
tp2115
a(g1959
g315
g3
tp2116
a(g1959
g317
g3
tp2117
a(g1959
g319
g3
tp2118
a(g1959
g321
g3
tp2119
a(g1959
g323
g3
tp2120
a(g1959
g325
g3
tp2121
a(g1959
g327
g3
tp2122
a(g1959
g329
g3
tp2123
a(g1959
g331
g3
tp2124
a(g1959
g333
g3
tp2125
a(g1959
g335
g3
tp2126
a(g1959
g337
g3
tp2127
a(g1959
g339
g3
tp2128
a(g1959
g341
g3
tp2129
a(g1959
g343
g3
tp2130
a(g1959
g345
g3
tp2131
a(g1959
g347
g3
tp2132
a(g1959
g349
g3
tp2133
a(g1959
g351
g3
tp2134
a(g1959
g353
g3
tp2135
a(g1959
g355
g3
tp2136
a(g1959
g357
g3
tp2137
a(g1959
g359
g3
tp2138
a(g1959
g361
g3
tp2139
a(g1959
g363
g3
tp2140
a(g1959
g365
g3
tp2141
a(g1959
g367
g3
tp2142
a(g1959
g369
g3
tp2143
a(g1959
g371
g3
tp2144
a(g1959
g373
g3
tp2145
a(g1959
g375
g3
tp2146
a(g1959
g377
g3
tp2147
a(g1959
g379
g3
tp2148
a(g1959
g381
g3
tp2149
a(g1959
g383
g3
tp2150
a(g1959
g385
g3
tp2151
a(g1959
g387
g3
tp2152
a(g1959
g389
g3
tp2153
a(g1959
g391
g3
tp2154
a(g1959
g393
g3
tp2155
a(g1959
g395
g3
tp2156
a(g1959
g397
g3
tp2157
a(g1959
g399
g3
tp2158
a(g1959
g401
g3
tp2159
a(g1959
g403
g3
tp2160
a(g1959
g405
g3
tp2161
a(g1959
g407
g3
tp2162
a(g1959
g409
g3
tp2163
a(g1959
g411
g3
tp2164
a(g1959
g413
g3
tp2165
a(g1959
g415
g3
tp2166
a(g1959
g417
g3
tp2167
a(g1959
g419
g3
tp2168
a(g1959
g421
g3
tp2169
a(g1959
g423
g3
tp2170
a(g1959
g425
g3
tp2171
a(g1959
g427
g3
tp2172
a(g1959
g429
g3
tp2173
a(g1959
g431
g3
tp2174
a(g1959
g433
g3
tp2175
a(g1959
g435
g3
tp2176
a(g1959
g437
g3
tp2177
a(g1959
g439
g3
tp2178
a(g1959
g441
g3
tp2179
a(g1959
g443
g3
tp2180
a(g1959
g445
g3
tp2181
a(g1959
g447
g3
tp2182
a(g1959
g449
g3
tp2183
a(g1959
g451
g3
tp2184
a(g1959
g453
g3
tp2185
a(g1959
g455
g3
tp2186
a(g1959
g457
g3
tp2187
a(g1959
g459
g3
tp2188
a(g1959
g461
g3
tp2189
a(g1959
g463
g3
tp2190
a(g1959
g465
g3
tp2191
a(g1959
g467
g3
tp2192
a(g1959
g469
g3
tp2193
a(g1959
g471
g3
tp2194
a(g1959
g473
g3
tp2195
a(g1959
g475
g3
tp2196
a(g1959
g477
g3
tp2197
a(g1959
g479
g3
tp2198
a(g1959
g481
g3
tp2199
a(g1959
g483
g3
tp2200
a(g1959
g485
g3
tp2201
a(g1959
g487
g3
tp2202
a(g1959
g489
g3
tp2203
a(g1959
g491
g3
tp2204
a(g1959
g493
g3
tp2205
a(g1959
g495
g3
tp2206
a(g1959
g497
g3
tp2207
a(g1959
g499
g3
tp2208
a(g1959
g501
g3
tp2209
a(g1959
g503
g3
tp2210
a(g1959
g505
g3
tp2211
a(g1959
g507
g3
tp2212
a(g1959
g509
g3
tp2213
a(g1959
g511
g3
tp2214
a(g1959
g513
g3
tp2215
a(g1959
g515
g3
tp2216
a(g1959
g517
g3
tp2217
a(g1959
g519
g3
tp2218
a(g1959
g521
g3
tp2219
a(g1959
g523
g3
tp2220
a(g1959
g525
g3
tp2221
a(g1959
g527
g3
tp2222
a(g1959
g529
g3
tp2223
a(g1959
g531
g3
tp2224
a(g1959
g533
g3
tp2225
a(g1959
g535
g3
tp2226
a(g1959
g537
g3
tp2227
a(g1959
g539
g3
tp2228
a(g1959
g541
g3
tp2229
a(g1959
g543
g3
tp2230
a(g1959
g545
g3
tp2231
a(g1959
g547
g3
tp2232
a(g1959
g549
g3
tp2233
a(g1959
g551
g3
tp2234
a(g1959
g553
g3
tp2235
a(g1959
g555
g3
tp2236
a(g1959
g557
g3
tp2237
a(g1959
g559
g3
tp2238
a(g1959
g561
g3
tp2239
a(g1959
g563
g3
tp2240
a(g1959
g565
g3
tp2241
a(g1959
g567
g3
tp2242
a(g1959
g569
g3
tp2243
a(g1959
g571
g3
tp2244
a(g1959
g573
g3
tp2245
a(g1959
g575
g3
tp2246
a(g1959
g577
g3
tp2247
a(g1959
g579
g3
tp2248
a(g1959
g581
g3
tp2249
a(g1959
g583
g3
tp2250
a(g1959
g585
g3
tp2251
a(g1959
g587
g3
tp2252
a(g1959
g589
g3
tp2253
a(g1959
g591
g3
tp2254
a(g1959
g593
g3
tp2255
a(g1959
g595
g3
tp2256
a(g1959
g597
g3
tp2257
a(g1959
g599
g3
tp2258
a(g1959
g601
g3
tp2259
a(g1959
g603
g3
tp2260
a(g1959
g605
g3
tp2261
a(g1959
g607
g3
tp2262
a(g1959
g609
g3
tp2263
a(g1959
g611
g3
tp2264
a(g1959
g613
g3
tp2265
a(g1959
g615
g3
tp2266
a(g1959
g617
g3
tp2267
a(g1959
g619
g3
tp2268
a(g1959
g621
g3
tp2269
a(g1959
g623
g3
tp2270
a(g1959
g625
g3
tp2271
a(g1959
g627
g3
tp2272
a(g1959
g629
g3
tp2273
a(g1959
g631
g3
tp2274
a(g1959
g633
g3
tp2275
a(g1959
g635
g3
tp2276
a(g1959
g637
g3
tp2277
a(g1959
g639
g3
tp2278
a(g1959
g641
g3
tp2279
a(g1959
g643
g3
tp2280
a(g1959
g645
g3
tp2281
a(g1959
g647
g3
tp2282
a(g1959
g649
g3
tp2283
a(g1959
g651
g3
tp2284
a(g1959
g653
g3
tp2285
a(g1959
g655
g3
tp2286
a(g1959
g657
g3
tp2287
a(g1959
g659
g3
tp2288
a(g1959
g661
g3
tp2289
a(g1959
g663
g3
tp2290
a(g1959
g665
g3
tp2291
a(g1959
g667
g3
tp2292
a(g1959
g669
g3
tp2293
a(g1959
g671
g3
tp2294
a(g1959
g673
g3
tp2295
a(g1959
g675
g3
tp2296
a(g1959
g677
g3
tp2297
a(g1959
g679
g3
tp2298
a(g1959
g681
g3
tp2299
a(g1959
g683
g3
tp2300
a(g1959
g685
g3
tp2301
a(g1959
g687
g3
tp2302
a(g1959
g689
g3
tp2303
a(g1959
g691
g3
tp2304
a(g1959
g693
g3
tp2305
a(g1959
g695
g3
tp2306
a(g1959
g697
g3
tp2307
a(g1959
g699
g3
tp2308
a(g1959
g701
g3
tp2309
a(g1959
g703
g3
tp2310
a(g1959
g705
g3
tp2311
a(g1959
g707
g3
tp2312
a(g1959
g709
g3
tp2313
a(g1959
g711
g3
tp2314
a(g1959
g713
g3
tp2315
a(g1959
g715
g3
tp2316
a(g1959
g717
g3
tp2317
a(g1959
g719
g3
tp2318
a(g1959
g721
g3
tp2319
a(g1959
g723
g3
tp2320
a(g1959
g725
g3
tp2321
a(g1959
g727
g3
tp2322
a(g1959
g729
g3
tp2323
a(g1959
g731
g3
tp2324
a(g1959
g733
g3
tp2325
a(g1959
g735
g3
tp2326
a(g1959
g737
g3
tp2327
a(g1959
g739
g3
tp2328
a(g1959
g741
g3
tp2329
a(g1959
g743
g3
tp2330
a(g1959
g745
g3
tp2331
a(g1959
g747
g3
tp2332
a(g1959
g749
g3
tp2333
a(g1959
g751
g3
tp2334
a(g1959
g753
g3
tp2335
a(g1959
g755
g3
tp2336
a(g1959
g757
g3
tp2337
a(g1959
g759
g3
tp2338
a(g1959
g761
g3
tp2339
a(g1959
g763
g3
tp2340
a(g1959
g765
g3
tp2341
a(g1959
g767
g3
tp2342
a(g1959
g769
g3
tp2343
a(g1959
g771
g3
tp2344
a(g1959
g773
g3
tp2345
a(g1959
g775
g3
tp2346
a(g1959
g777
g3
tp2347
a(g1959
g779
g3
tp2348
a(g1959
g781
g3
tp2349
a(g1959
g783
g3
tp2350
a(g1959
g785
g3
tp2351
a(g1959
g787
g3
tp2352
a(g1959
g789
g3
tp2353
a(g1959
g791
g3
tp2354
a(g1959
g793
g3
tp2355
a(g1959
g795
g3
tp2356
a(g1959
g797
g3
tp2357
a(g1959
g799
g3
tp2358
a(g1959
g801
g3
tp2359
a(g1959
g803
g3
tp2360
a(g1959
g805
g3
tp2361
a(g1959
g807
g3
tp2362
a(g1959
g809
g3
tp2363
a(g1959
g811
g3
tp2364
a(g1959
g813
g3
tp2365
a(g1959
g815
g3
tp2366
a(g1959
g817
g3
tp2367
a(g1959
g819
g3
tp2368
a(g1959
g821
g3
tp2369
a(g1959
g823
g3
tp2370
a(g1959
g825
g3
tp2371
a(g1959
g827
g3
tp2372
a(g1959
g829
g3
tp2373
a(g1959
g831
g3
tp2374
a(g1959
g833
g3
tp2375
a(g1959
g835
g3
tp2376
a(g1959
g837
g3
tp2377
a(g1959
g839
g3
tp2378
a(g1959
g841
g3
tp2379
a(g1959
g843
g3
tp2380
a(g1959
g845
g3
tp2381
a(g1959
g847
g3
tp2382
a(g1959
g849
g3
tp2383
a(g1959
g851
g3
tp2384
a(g1959
g853
g3
tp2385
a(g1959
g855
g3
tp2386
a(g1959
g857
g3
tp2387
a(g1959
g859
g3
tp2388
a(g1959
g861
g3
tp2389
a(g1959
g863
g3
tp2390
a(g1959
g865
g3
tp2391
a(g1959
g867
g3
tp2392
a(g1959
g869
g3
tp2393
a(g1959
g871
g3
tp2394
a(g1959
g873
g3
tp2395
a(g1959
g875
g3
tp2396
a(g1959
g877
g3
tp2397
a(g1959
g879
g3
tp2398
a(g1959
g881
g3
tp2399
a(g1959
g883
g3
tp2400
a(g1959
g885
g3
tp2401
a(g1959
g887
g3
tp2402
a(g1959
g889
g3
tp2403
a(g1959
g891
g3
tp2404
a(g1959
g893
g3
tp2405
a(g1959
g895
g3
tp2406
a(g1959
g897
g3
tp2407
a(g1959
g899
g3
tp2408
a(g1959
g901
g3
tp2409
a(g1959
g903
g3
tp2410
a(g1959
g905
g3
tp2411
a(g1959
g907
g3
tp2412
a(g1959
g909
g3
tp2413
a(g1959
g911
g3
tp2414
a(g1959
g913
g3
tp2415
a(g1959
g915
g3
tp2416
a(g1959
g917
g3
tp2417
a(g1959
g919
g3
tp2418
a(g1959
g921
g3
tp2419
a(g1959
g923
g3
tp2420
a(g1959
g925
g3
tp2421
a(g1959
g927
g3
tp2422
a(g1959
g929
g3
tp2423
a(g1959
g931
g3
tp2424
a(g1959
g933
g3
tp2425
a(g1959
g935
g3
tp2426
a(g1959
g937
g3
tp2427
a(g1959
g939
g3
tp2428
a(g1959
g941
g3
tp2429
a(g1959
g943
g3
tp2430
a(g1959
g945
g3
tp2431
a(g1959
g947
g3
tp2432
a(g1959
g949
g3
tp2433
a(g1959
g951
g3
tp2434
a(g1959
g953
g3
tp2435
a(g1959
g955
g3
tp2436
a(g1959
g957
g3
tp2437
a(g1959
g959
g3
tp2438
a(g1959
g961
g3
tp2439
a(g1959
g963
g3
tp2440
a(g1959
g965
g3
tp2441
a(g1959
g967
g3
tp2442
a(g1959
g969
g3
tp2443
a(g1959
g971
g3
tp2444
a(g1959
g973
g3
tp2445
a(g1959
g975
g3
tp2446
a(g1959
g977
g3
tp2447
a(g1959
g979
g3
tp2448
a(g1959
g981
g3
tp2449
a(g1959
g983
g3
tp2450
a(g1959
g985
g3
tp2451
a(g1959
g987
g3
tp2452
a(g1959
g989
g3
tp2453
a(g1959
g991
g3
tp2454
a(g1959
g993
g3
tp2455
a(g1959
g995
g3
tp2456
a(g1959
g997
g3
tp2457
a(g1959
g999
g3
tp2458
a(g1959
g1001
g3
tp2459
a(g1959
g1003
g3
tp2460
a(g1959
g1005
g3
tp2461
a(g1959
g1007
g3
tp2462
a(g1959
g1009
g3
tp2463
a(g1959
g1011
g3
tp2464
a(g1959
g1013
g3
tp2465
a(g1959
g1015
g3
tp2466
a(g1959
g1017
g3
tp2467
a(g1959
g1019
g3
tp2468
a(g1959
g1021
g3
tp2469
a(g1959
g1023
g3
tp2470
a(g1959
g1025
g3
tp2471
a(g1959
g1027
g3
tp2472
a(g1959
g1029
g3
tp2473
a(g1959
g1031
g3
tp2474
a(g1959
g1033
g3
tp2475
a(g1959
g1035
g3
tp2476
a(g1959
g1037
g3
tp2477
a(g1959
g1039
g3
tp2478
a(g1959
g1041
g3
tp2479
a(g1959
g1043
g3
tp2480
a(g1959
g1045
g3
tp2481
a(g1959
g1047
g3
tp2482
a(g1959
g1049
g3
tp2483
a(g1959
g1051
g3
tp2484
a(g1959
g1053
g3
tp2485
a(g1959
g1055
g3
tp2486
a(g1959
g1057
g3
tp2487
a(g1959
g1059
g3
tp2488
a(g1959
g1061
g3
tp2489
a(g1959
g1063
g3
tp2490
a(g1959
g1065
g3
tp2491
a(g1959
g1067
g3
tp2492
a(g1959
g1069
g3
tp2493
a(g1959
g1071
g3
tp2494
a(g1959
g1073
g3
tp2495
a(g1959
g1075
g3
tp2496
a(g1959
g1077
g3
tp2497
a(g1959
g1079
g3
tp2498
a(g1959
g1081
g3
tp2499
a(g1959
g1083
g3
tp2500
a(g1959
g1085
g3
tp2501
a(g1959
g1087
g3
tp2502
a(g1959
g1089
g3
tp2503
a(g1959
g1091
g3
tp2504
a(g1959
g1093
g3
tp2505
a(g1959
g1095
g3
tp2506
a(g1959
g1097
g3
tp2507
a(g1959
g1099
g3
tp2508
a(g1959
g1101
g3
tp2509
a(g1959
g1103
g3
tp2510
a(g1959
g1105
g3
tp2511
a(g1959
g1107
g3
tp2512
a(g1959
g1109
g3
tp2513
a(g1959
g1111
g3
tp2514
a(g1959
g1113
g3
tp2515
a(g1959
g1115
g3
tp2516
a(g1959
g1117
g3
tp2517
a(g1959
g1119
g3
tp2518
a(g1959
g1121
g3
tp2519
a(g1959
g1123
g3
tp2520
a(g1959
g1125
g3
tp2521
a(g1959
g1127
g3
tp2522
a(g1959
g1129
g3
tp2523
a(g1959
g1131
g3
tp2524
a(g1959
g1133
g3
tp2525
a(g1959
g1135
g3
tp2526
a(g1959
g1137
g3
tp2527
a(g1959
g1139
g3
tp2528
a(g1959
g1141
g3
tp2529
a(g1959
g1143
g3
tp2530
a(g1959
g1145
g3
tp2531
a(g1959
g1147
g3
tp2532
a(g1959
g1149
g3
tp2533
a(g1959
g1151
g3
tp2534
a(g1959
g1153
g3
tp2535
a(g1959
g1155
g3
tp2536
a(g1959
g1157
g3
tp2537
a(g1959
g1159
g3
tp2538
a(g1959
g1161
g3
tp2539
a(g1959
g1163
g3
tp2540
a(g1959
g1165
g3
tp2541
a(g1959
g1167
g3
tp2542
a(g1959
g1169
g3
tp2543
a(g1959
g1171
g3
tp2544
a(g1959
g1173
g3
tp2545
a(g1959
g1175
g3
tp2546
a(g1959
g1177
g3
tp2547
a(g1959
g1179
g3
tp2548
a(g1959
g1181
g3
tp2549
a(g1959
g1183
g3
tp2550
a(g1959
g1185
g3
tp2551
a(g1959
g1187
g3
tp2552
a(g1959
g1189
g3
tp2553
a(g1959
g1191
g3
tp2554
a(g1959
g1193
g3
tp2555
a(g1959
g1195
g3
tp2556
a(g1959
g1197
g3
tp2557
a(g1959
g1199
g3
tp2558
a(g1959
g1201
g3
tp2559
a(g1959
g1203
g3
tp2560
a(g1959
g1205
g3
tp2561
a(g1959
g1207
g3
tp2562
a(g1959
g1209
g3
tp2563
a(g1959
g1211
g3
tp2564
a(g1959
g1213
g3
tp2565
a(g1959
g1215
g3
tp2566
a(g1959
g1217
g3
tp2567
a(g1959
g1219
g3
tp2568
a(g1959
g1221
g3
tp2569
a(g1959
g1223
g3
tp2570
a(g1959
g1225
g3
tp2571
a(g1959
g1227
g3
tp2572
a(g1959
g1229
g3
tp2573
a(g1959
g1231
g3
tp2574
a(g1959
g1233
g3
tp2575
a(g1959
g1235
g3
tp2576
a(g1959
g1237
g3
tp2577
a(g1959
g1239
g3
tp2578
a(g1959
g1241
g3
tp2579
a(g1959
g1243
g3
tp2580
a(g1959
g1245
g3
tp2581
a(g1959
g1247
g3
tp2582
a(g1959
g1249
g3
tp2583
a(g1959
g1251
g3
tp2584
a(g1959
g1253
g3
tp2585
a(g1959
g1255
g3
tp2586
a(g1959
g1257
g3
tp2587
a(g1959
g1259
g3
tp2588
a(g1959
g1261
g3
tp2589
a(g1959
g1263
g3
tp2590
a(g1959
g1265
g3
tp2591
a(g1959
g1267
g3
tp2592
a(g1959
g1269
g3
tp2593
a(g1959
g1271
g3
tp2594
a(g1959
g1273
g3
tp2595
a(g1959
g1275
g3
tp2596
a(g1959
g1277
g3
tp2597
a(g1959
g1279
g3
tp2598
a(g1959
g1281
g3
tp2599
a(g1959
g1283
g3
tp2600
a(g1959
g1285
g3
tp2601
a(g1959
g1287
g3
tp2602
a(g1959
g1289
g3
tp2603
a(g1959
g1291
g3
tp2604
a(g1959
g1293
g3
tp2605
a(g1959
g1295
g3
tp2606
a(g1959
g1297
g3
tp2607
a(g1959
g1299
g3
tp2608
a(g1959
g1301
g3
tp2609
a(g1959
g1303
g3
tp2610
a(g1959
g1305
g3
tp2611
a(g1959
g1307
g3
tp2612
a(g1959
g1309
g3
tp2613
a(g1959
g1311
g3
tp2614
a(g1959
g1313
g3
tp2615
a(g1959
g1315
g3
tp2616
a(g1959
g1317
g3
tp2617
a(g1959
g1319
g3
tp2618
a(g1959
g1321
g3
tp2619
a(g1959
g1323
g3
tp2620
a(g1959
g1325
g3
tp2621
a(g1959
g1327
g3
tp2622
a(g1959
g1329
g3
tp2623
a(g1959
g1331
g3
tp2624
a(g1959
g1333
g3
tp2625
a(g1959
g1335
g3
tp2626
a(g1959
g1337
g3
tp2627
a(g1959
g1339
g3
tp2628
a(g1959
g1341
g3
tp2629
a(g1959
g1343
g3
tp2630
a(g1959
g1345
g3
tp2631
a(g1959
g1347
g3
tp2632
a(g1959
g1349
g3
tp2633
a(g1959
g1351
g3
tp2634
a(g1959
g1353
g3
tp2635
a(g1959
g1355
g3
tp2636
a(g1959
g1357
g3
tp2637
a(g1959
g1359
g3
tp2638
a(g1959
g1361
g3
tp2639
a(g1959
g1363
g3
tp2640
a(g1959
g1365
g3
tp2641
a(g1959
g1367
g3
tp2642
a(g1959
g1369
g3
tp2643
a(g1959
g1371
g3
tp2644
a(g1959
g1373
g3
tp2645
a(g1959
g1375
g3
tp2646
a(g1959
g1377
g3
tp2647
a(g1959
g1379
g3
tp2648
a(g1959
g1381
g3
tp2649
a(g1959
g1383
g3
tp2650
a(g1959
g1385
g3
tp2651
a(g1959
g1387
g3
tp2652
a(g1959
g1389
g3
tp2653
a(g1959
g1391
g3
tp2654
a(g1959
g1393
g3
tp2655
a(g1959
g1395
g3
tp2656
a(g1959
g1397
g3
tp2657
a(g1959
g1399
g3
tp2658
a(g1959
g1401
g3
tp2659
a(g1959
g1403
g3
tp2660
a(g1959
g1405
g3
tp2661
a(g1959
g1407
g3
tp2662
a(g1959
g1409
g3
tp2663
a(g1959
g1411
g3
tp2664
a(g1959
g1413
g3
tp2665
a(g1959
g1415
g3
tp2666
a(g1959
g1417
g3
tp2667
a(g1959
g1419
g3
tp2668
a(g1959
g1421
g3
tp2669
a(g1959
g1423
g3
tp2670
a(g1959
g1425
g3
tp2671
a(g1959
g1427
g3
tp2672
a(g1959
g1429
g3
tp2673
a(g1959
g1431
g3
tp2674
a(g1959
g1433
g3
tp2675
a(g1959
g1435
g3
tp2676
a(g1959
g1437
g3
tp2677
a(g1959
g1439
g3
tp2678
a(g1959
g1441
g3
tp2679
a(g1959
g1443
g3
tp2680
a(g1959
g1445
g3
tp2681
a(g1959
g1447
g3
tp2682
a(g1959
g1449
g3
tp2683
a(g1959
g1451
g3
tp2684
a(g1959
g1453
g3
tp2685
a(g1959
g1455
g3
tp2686
a(g1959
g1457
g3
tp2687
a(g1959
g1459
g3
tp2688
a(g1959
g1461
g3
tp2689
a(g1959
g1463
g3
tp2690
a(g1959
g1465
g3
tp2691
a(g1959
g1467
g3
tp2692
a(g1959
g1469
g3
tp2693
a(g1959
g1471
g3
tp2694
a(g1959
g1473
g3
tp2695
a(g1959
g1475
g3
tp2696
a(g1959
g1477
g3
tp2697
a(g1959
g1479
g3
tp2698
a(g1959
g1481
g3
tp2699
a(g1959
g1483
g3
tp2700
a(g1959
g1485
g3
tp2701
a(g1959
g1487
g3
tp2702
a(g1959
g1489
g3
tp2703
a(g1959
g1491
g3
tp2704
a(g1959
g1493
g3
tp2705
a(g1959
g1495
g3
tp2706
a(g1959
g1497
g3
tp2707
a(g1959
g1499
g3
tp2708
a(g1959
g1501
g3
tp2709
a(g1959
g1503
g3
tp2710
a(g1959
g1505
g3
tp2711
a(g1959
g1507
g3
tp2712
a(g1959
g1509
g3
tp2713
a(g1959
g1511
g3
tp2714
a(g1959
g1513
g3
tp2715
a(g1959
g1515
g3
tp2716
a(g1959
g1517
g3
tp2717
a(g1959
g1519
g3
tp2718
a(g1959
g1521
g3
tp2719
a(g1959
g1523
g3
tp2720
a(g1959
g1525
g3
tp2721
a(g1959
g1527
g3
tp2722
a(g1959
g1529
g3
tp2723
a(g1959
g1531
g3
tp2724
a(g1959
g1533
g3
tp2725
a(g1959
g1535
g3
tp2726
a(g1959
g1537
g3
tp2727
a(g1959
g1539
g3
tp2728
a(g1959
g1541
g3
tp2729
a(g1959
g1543
g3
tp2730
a(g1959
g1545
g3
tp2731
a(g1959
g1547
g3
tp2732
a(g1959
g1549
g3
tp2733
a(g1959
g1551
g3
tp2734
a(g1959
g1553
g3
tp2735
a(g1959
g1555
g3
tp2736
a(g1959
g1557
g3
tp2737
a(g1959
g1559
g3
tp2738
a(g1959
g1561
g3
tp2739
a(g1959
g1563
g3
tp2740
a(g1959
g1565
g3
tp2741
a(g1959
g1567
g3
tp2742
a(g1959
g1569
g3
tp2743
a(g1959
g1571
g3
tp2744
a(g1959
g1573
g3
tp2745
a(g1959
g1575
g3
tp2746
a(g1959
g1577
g3
tp2747
a(g1959
g1579
g3
tp2748
a(g1959
g1581
g3
tp2749
a(g1959
g1583
g3
tp2750
a(g1959
g1585
g3
tp2751
a(g1959
g1587
g3
tp2752
a(g1959
g1589
g3
tp2753
a(g1959
g1591
g3
tp2754
a(g1959
g1593
g3
tp2755
a(g1959
g1595
g3
tp2756
a(g1959
g1597
g3
tp2757
a(g1959
g1599
g3
tp2758
a(g1959
g1601
g3
tp2759
a(g1959
g1603
g3
tp2760
a(g1959
g1605
g3
tp2761
a(g1959
g1607
g3
tp2762
a(g1959
g1609
g3
tp2763
a(g1959
g1611
g3
tp2764
a(g1959
g1613
g3
tp2765
a(g1959
g1615
g3
tp2766
a(g1959
g1617
g3
tp2767
a(g1959
g1619
g3
tp2768
a(g1959
g1621
g3
tp2769
a(g1959
g1623
g3
tp2770
a(g1959
g1625
g3
tp2771
a(g1959
g1627
g3
tp2772
a(g1959
g1629
g3
tp2773
a(g1959
g1631
g3
tp2774
a(g1959
g1633
g3
tp2775
a(g1959
g1635
g3
tp2776
a(g1959
g1637
g3
tp2777
a(g1959
g1639
g3
tp2778
a(g1959
g1641
g3
tp2779
a(g1959
g1643
g3
tp2780
a(g1959
g1645
g3
tp2781
a(g1959
g1647
g3
tp2782
a(g1959
g1649
g3
tp2783
a(g1959
g1651
g3
tp2784
a(g1959
g1653
g3
tp2785
a(g1959
g1655
g3
tp2786
a(g1959
g1657
g3
tp2787
a(g1959
g1659
g3
tp2788
a(g1959
g1661
g3
tp2789
a(g1959
g1663
g3
tp2790
a(g1959
g1665
g3
tp2791
a(g1959
g1667
g3
tp2792
a(g1959
g1669
g3
tp2793
a(g1959
g1671
g3
tp2794
a(g1959
g1673
g3
tp2795
a(g1959
g1675
g3
tp2796
a(g1959
g1677
g3
tp2797
a(g1959
g1679
g3
tp2798
a(g1959
g1681
g3
tp2799
a(g1959
g1683
g3
tp2800
a(g1959
g1685
g3
tp2801
a(g1959
g1687
g3
tp2802
a(g1959
g1689
g3
tp2803
a(g1959
g1691
g3
tp2804
a(g1959
g1693
g3
tp2805
a(g1959
g1695
g3
tp2806
a(g1959
g1697
g3
tp2807
a(g1959
g1699
g3
tp2808
a(g1959
g1701
g3
tp2809
a(g1959
g1703
g3
tp2810
a(g1959
g1705
g3
tp2811
a(g1959
g1707
g3
tp2812
a(g1959
g1709
g3
tp2813
a(g1959
g1711
g3
tp2814
a(g1959
g1713
g3
tp2815
a(g1959
g1715
g3
tp2816
a(g1959
g1717
g3
tp2817
a(g1959
g1719
g3
tp2818
a(g1959
g1721
g3
tp2819
a(g1959
g1723
g3
tp2820
a(g1959
g1725
g3
tp2821
a(g1959
g1727
g3
tp2822
a(g1959
g1729
g3
tp2823
a(g1959
g1731
g3
tp2824
a(g1959
g1733
g3
tp2825
a(g1959
g1735
g3
tp2826
a(g1959
g1737
g3
tp2827
a(g1959
g1739
g3
tp2828
a(g1959
g1741
g3
tp2829
a(g1959
g1743
g3
tp2830
a(g1959
g1745
g3
tp2831
a(g1959
g1747
g3
tp2832
a(g1959
g1749
g3
tp2833
a(g1959
g1751
g3
tp2834
a(g1959
g1753
g3
tp2835
a(g1959
g1755
g3
tp2836
a(g1959
g1757
g3
tp2837
a(g1959
g1759
g3
tp2838
a(g1959
g1761
g3
tp2839
a(g1959
g1763
g3
tp2840
a(g1959
g1765
g3
tp2841
a(g1959
g1767
g3
tp2842
a(g1959
g1769
g3
tp2843
a(g1959
g1771
g3
tp2844
a(g1959
g1773
g3
tp2845
a(g1959
g1775
g3
tp2846
a(g1959
g1777
g3
tp2847
a(g1959
g1779
g3
tp2848
a(g1959
g1781
g3
tp2849
a(g1959
g1783
g3
tp2850
a(g1959
g1785
g3
tp2851
a(g1959
g1787
g3
tp2852
a(g1959
g1789
g3
tp2853
a(g1959
g1791
g3
tp2854
a(g1959
g1793
g3
tp2855
a(g1959
g1795
g3
tp2856
a(g1959
g1797
g3
tp2857
a(g1959
g1799
g3
tp2858
a(g1959
g1801
g3
tp2859
a(g1959
g1803
g3
tp2860
a(g1959
g1805
g3
tp2861
a(g1959
g1807
g3
tp2862
a(g1959
g1809
g3
tp2863
a(g1959
g1811
g3
tp2864
a(g1959
g1813
g3
tp2865
a(g1959
g1815
g3
tp2866
a(g1959
g1817
g3
tp2867
a(g1959
g1819
g3
tp2868
a(g1959
g1821
g3
tp2869
a(g1959
g1823
g3
tp2870
a(g1959
g1825
g3
tp2871
a(g1959
g1827
g3
tp2872
a(g1959
g1829
g3
tp2873
a(g1959
g1831
g3
tp2874
a(g1959
g1833
g3
tp2875
a(g1959
g1835
g3
tp2876
a(g1959
g1837
g3
tp2877
a(g1959
g1839
g3
tp2878
a(g1959
g1841
g3
tp2879
a(g1959
g1843
g3
tp2880
a(g1959
g1845
g3
tp2881
a(g1959
g1847
g3
tp2882
a(g1959
g1849
g3
tp2883
a(g1959
g1851
g3
tp2884
a(g1959
g1853
g3
tp2885
a(g1959
g1855
g3
tp2886
a(g1959
g1857
g3
tp2887
a(g1959
g1859
g3
tp2888
a(g1959
g1861
g3
tp2889
a(g1959
g1863
g3
tp2890
a(g1959
g1865
g3
tp2891
a(g1959
g1867
g3
tp2892
a(g1959
g1869
g3
tp2893
a(g1959
g1871
g3
tp2894
a(g1959
g1873
g3
tp2895
a(g1959
g1875
g3
tp2896
a(g1959
g1877
g3
tp2897
a(g1959
g1879
g3
tp2898
a(g1959
g1881
g3
tp2899
a(g1959
g1883
g3
tp2900
a(g1959
g1885
g3
tp2901
a(g1959
g1887
g3
tp2902
a(g1959
g1889
g3
tp2903
a(g1959
g1891
g3
tp2904
a(g1959
g1893
g3
tp2905
a(g1959
g1895
g3
tp2906
a(g1959
g1897
g3
tp2907
a(g1959
g1899
g3
tp2908
a(g1959
g1901
g3
tp2909
a(g1959
g1903
g3
tp2910
a(g1959
g1905
g3
tp2911
a(g1959
g1907
g3
tp2912
a(g1959
g1909
g3
tp2913
a(g1959
g1911
g3
tp2914
a(g1959
g1913
g3
tp2915
a(g1959
g1915
g3
tp2916
a(g1959
g1917
g3
tp2917
a(g1959
g1919
g3
tp2918
a(g1959
g1921
g3
tp2919
a(g1959
g1923
g3
tp2920
a(g1959
g1925
g3
tp2921
a(g1959
g1927
g3
tp2922
a(g1959
g1929
g3
tp2923
a(g1959
g1931
g3
tp2924
a(g1959
g1933
g3
tp2925
a(g1959
g1935
g3
tp2926
a(g1959
g1937
g3
tp2927
a(g1959
g1939
g3
tp2928
a(g1959
g1941
g3
tp2929
a(g1959
g1943
g3
tp2930
a(g1959
g1945
g3
tp2931
a(g1959
g1947
g3
tp2932
a(g1959
g1949
g3
tp2933
a(g1959
g1951
g3
tp2934
a(g1959
g1953
g3
tp2935
a(g1959
g1955
g3
tp2936
a(g1959
g1957
g3
tp2937
a(S'PC3'
p2938
g2
g3
tp2939
a(g2938
g5
g3
tp2940
a(g2938
g7
g3
tp2941
a(g2938
g9
g3
tp2942
a(g2938
g11
g3
tp2943
a(g2938
g13
g3
tp2944
a(g2938
g15
g3
tp2945
a(g2938
g17
g3
tp2946
a(g2938
g19
g3
tp2947
a(g2938
g21
g3
tp2948
a(g2938
g23
g3
tp2949
a(g2938
g25
g3
tp2950
a(g2938
g27
g3
tp2951
a(g2938
g29
g3
tp2952
a(g2938
g31
g3
tp2953
a(g2938
g33
g3
tp2954
a(g2938
g35
g3
tp2955
a(g2938
g37
g3
tp2956
a(g2938
g39
g3
tp2957
a(g2938
g41
g3
tp2958
a(g2938
g43
g3
tp2959
a(g2938
g45
g3
tp2960
a(g2938
g47
g3
tp2961
a(g2938
g49
g3
tp2962
a(g2938
g51
g3
tp2963
a(g2938
g53
g3
tp2964
a(g2938
g55
g3
tp2965
a(g2938
g57
g3
tp2966
a(g2938
g59
g3
tp2967
a(g2938
g61
g3
tp2968
a(g2938
g63
g3
tp2969
a(g2938
g65
g3
tp2970
a(g2938
g67
g3
tp2971
a(g2938
g69
g3
tp2972
a(g2938
g71
g3
tp2973
a(g2938
g73
g3
tp2974
a(g2938
g75
g3
tp2975
a(g2938
g77
g3
tp2976
a(g2938
g79
g3
tp2977
a(g2938
g81
g3
tp2978
a(g2938
g83
g3
tp2979
a(g2938
g85
g3
tp2980
a(g2938
g87
g3
tp2981
a(g2938
g89
g3
tp2982
a(g2938
g91
g3
tp2983
a(g2938
g93
g3
tp2984
a(g2938
g95
g3
tp2985
a(g2938
g97
g3
tp2986
a(g2938
g99
g3
tp2987
a(g2938
g101
g3
tp2988
a(g2938
g103
g3
tp2989
a(g2938
g105
g3
tp2990
a(g2938
g107
g3
tp2991
a(g2938
g109
g3
tp2992
a(g2938
g111
g3
tp2993
a(g2938
g113
g3
tp2994
a(g2938
g115
g3
tp2995
a(g2938
g117
g3
tp2996
a(g2938
g119
g3
tp2997
a(g2938
g121
g3
tp2998
a(g2938
g123
g3
tp2999
a(g2938
g125
g3
tp3000
a(g2938
g127
g3
tp3001
a(g2938
g129
g3
tp3002
a(g2938
g131
g3
tp3003
a(g2938
g133
g3
tp3004
a(g2938
g135
g3
tp3005
a(g2938
g137
g3
tp3006
a(g2938
g139
g3
tp3007
a(g2938
g141
g3
tp3008
a(g2938
g143
g3
tp3009
a(g2938
g145
g3
tp3010
a(g2938
g147
g3
tp3011
a(g2938
g149
g3
tp3012
a(g2938
g151
g3
tp3013
a(g2938
g153
g3
tp3014
a(g2938
g155
g3
tp3015
a(g2938
g157
g3
tp3016
a(g2938
g159
g3
tp3017
a(g2938
g161
g3
tp3018
a(g2938
g163
g3
tp3019
a(g2938
g165
g3
tp3020
a(g2938
g167
g3
tp3021
a(g2938
g169
g3
tp3022
a(g2938
g171
g3
tp3023
a(g2938
g173
g3
tp3024
a(g2938
g175
g3
tp3025
a(g2938
g177
g3
tp3026
a(g2938
g179
g3
tp3027
a(g2938
g181
g3
tp3028
a(g2938
g183
g3
tp3029
a(g2938
g185
g3
tp3030
a(g2938
g187
g3
tp3031
a(g2938
g189
g3
tp3032
a(g2938
g191
g3
tp3033
a(g2938
g193
g3
tp3034
a(g2938
g195
g3
tp3035
a(g2938
g197
g3
tp3036
a(g2938
g199
g3
tp3037
a(g2938
g201
g3
tp3038
a(g2938
g203
g3
tp3039
a(g2938
g205
g3
tp3040
a(g2938
g207
g3
tp3041
a(g2938
g209
g3
tp3042
a(g2938
g211
g3
tp3043
a(g2938
g213
g3
tp3044
a(g2938
g215
g3
tp3045
a(g2938
g217
g3
tp3046
a(g2938
g219
g3
tp3047
a(g2938
g221
g3
tp3048
a(g2938
g223
g3
tp3049
a(g2938
g225
g3
tp3050
a(g2938
g227
g3
tp3051
a(g2938
g229
g3
tp3052
a(g2938
g231
g3
tp3053
a(g2938
g233
g3
tp3054
a(g2938
g235
g3
tp3055
a(g2938
g237
g3
tp3056
a(g2938
g239
g3
tp3057
a(g2938
g241
g3
tp3058
a(g2938
g243
g3
tp3059
a(g2938
g245
g3
tp3060
a(g2938
g247
g3
tp3061
a(g2938
g249
g3
tp3062
a(g2938
g251
g3
tp3063
a(g2938
g253
g3
tp3064
a(g2938
g255
g3
tp3065
a(g2938
g257
g3
tp3066
a(g2938
g259
g3
tp3067
a(g2938
g261
g3
tp3068
a(g2938
g263
g3
tp3069
a(g2938
g265
g3
tp3070
a(g2938
g267
g3
tp3071
a(g2938
g269
g3
tp3072
a(g2938
g271
g3
tp3073
a(g2938
g273
g3
tp3074
a(g2938
g275
g3
tp3075
a(g2938
g277
g3
tp3076
a(g2938
g279
g3
tp3077
a(g2938
g281
g3
tp3078
a(g2938
g283
g3
tp3079
a(g2938
g285
g3
tp3080
a(g2938
g287
g3
tp3081
a(g2938
g289
g3
tp3082
a(g2938
g291
g3
tp3083
a(g2938
g293
g3
tp3084
a(g2938
g295
g3
tp3085
a(g2938
g297
g3
tp3086
a(g2938
g299
g3
tp3087
a(g2938
g301
g3
tp3088
a(g2938
g303
g3
tp3089
a(g2938
g305
g3
tp3090
a(g2938
g307
g3
tp3091
a(g2938
g309
g3
tp3092
a(g2938
g311
g3
tp3093
a(g2938
g313
g3
tp3094
a(g2938
g315
g3
tp3095
a(g2938
g317
g3
tp3096
a(g2938
g319
g3
tp3097
a(g2938
g321
g3
tp3098
a(g2938
g323
g3
tp3099
a(g2938
g325
g3
tp3100
a(g2938
g327
g3
tp3101
a(g2938
g329
g3
tp3102
a(g2938
g331
g3
tp3103
a(g2938
g333
g3
tp3104
a(g2938
g335
g3
tp3105
a(g2938
g337
g3
tp3106
a(g2938
g339
g3
tp3107
a(g2938
g341
g3
tp3108
a(g2938
g343
g3
tp3109
a(g2938
g345
g3
tp3110
a(g2938
g347
g3
tp3111
a(g2938
g349
g3
tp3112
a(g2938
g351
g3
tp3113
a(g2938
g353
g3
tp3114
a(g2938
g355
g3
tp3115
a(g2938
g357
g3
tp3116
a(g2938
g359
g3
tp3117
a(g2938
g361
g3
tp3118
a(g2938
g363
g3
tp3119
a(g2938
g365
g3
tp3120
a(g2938
g367
g3
tp3121
a(g2938
g369
g3
tp3122
a(g2938
g371
g3
tp3123
a(g2938
g373
g3
tp3124
a(g2938
g375
g3
tp3125
a(g2938
g377
g3
tp3126
a(g2938
g379
g3
tp3127
a(g2938
g381
g3
tp3128
a(g2938
g383
g3
tp3129
a(g2938
g385
g3
tp3130
a(g2938
g387
g3
tp3131
a(g2938
g389
g3
tp3132
a(g2938
g391
g3
tp3133
a(g2938
g393
g3
tp3134
a(g2938
g395
g3
tp3135
a(g2938
g397
g3
tp3136
a(g2938
g399
g3
tp3137
a(g2938
g401
g3
tp3138
a(g2938
g403
g3
tp3139
a(g2938
g405
g3
tp3140
a(g2938
g407
g3
tp3141
a(g2938
g409
g3
tp3142
a(g2938
g411
g3
tp3143
a(g2938
g413
g3
tp3144
a(g2938
g415
g3
tp3145
a(g2938
g417
g3
tp3146
a(g2938
g419
g3
tp3147
a(g2938
g421
g3
tp3148
a(g2938
g423
g3
tp3149
a(g2938
g425
g3
tp3150
a(g2938
g427
g3
tp3151
a(g2938
g429
g3
tp3152
a(g2938
g431
g3
tp3153
a(g2938
g433
g3
tp3154
a(g2938
g435
g3
tp3155
a(g2938
g437
g3
tp3156
a(g2938
g439
g3
tp3157
a(g2938
g441
g3
tp3158
a(g2938
g443
g3
tp3159
a(g2938
g445
g3
tp3160
a(g2938
g447
g3
tp3161
a(g2938
g449
g3
tp3162
a(g2938
g451
g3
tp3163
a(g2938
g453
g3
tp3164
a(g2938
g455
g3
tp3165
a(g2938
g457
g3
tp3166
a(g2938
g459
g3
tp3167
a(g2938
g461
g3
tp3168
a(g2938
g463
g3
tp3169
a(g2938
g465
g3
tp3170
a(g2938
g467
g3
tp3171
a(g2938
g469
g3
tp3172
a(g2938
g471
g3
tp3173
a(g2938
g473
g3
tp3174
a(g2938
g475
g3
tp3175
a(g2938
g477
g3
tp3176
a(g2938
g479
g3
tp3177
a(g2938
g481
g3
tp3178
a(g2938
g483
g3
tp3179
a(g2938
g485
g3
tp3180
a(g2938
g487
g3
tp3181
a(g2938
g489
g3
tp3182
a(g2938
g491
g3
tp3183
a(g2938
g493
g3
tp3184
a(g2938
g495
g3
tp3185
a(g2938
g497
g3
tp3186
a(g2938
g499
g3
tp3187
a(g2938
g501
g3
tp3188
a(g2938
g503
g3
tp3189
a(g2938
g505
g3
tp3190
a(g2938
g507
g3
tp3191
a(g2938
g509
g3
tp3192
a(g2938
g511
g3
tp3193
a(g2938
g513
g3
tp3194
a(g2938
g515
g3
tp3195
a(g2938
g517
g3
tp3196
a(g2938
g519
g3
tp3197
a(g2938
g521
g3
tp3198
a(g2938
g523
g3
tp3199
a(g2938
g525
g3
tp3200
a(g2938
g527
g3
tp3201
a(g2938
g529
g3
tp3202
a(g2938
g531
g3
tp3203
a(g2938
g533
g3
tp3204
a(g2938
g535
g3
tp3205
a(g2938
g537
g3
tp3206
a(g2938
g539
g3
tp3207
a(g2938
g541
g3
tp3208
a(g2938
g543
g3
tp3209
a(g2938
g545
g3
tp3210
a(g2938
g547
g3
tp3211
a(g2938
g549
g3
tp3212
a(g2938
g551
g3
tp3213
a(g2938
g553
g3
tp3214
a(g2938
g555
g3
tp3215
a(g2938
g557
g3
tp3216
a(g2938
g559
g3
tp3217
a(g2938
g561
g3
tp3218
a(g2938
g563
g3
tp3219
a(g2938
g565
g3
tp3220
a(g2938
g567
g3
tp3221
a(g2938
g569
g3
tp3222
a(g2938
g571
g3
tp3223
a(g2938
g573
g3
tp3224
a(g2938
g575
g3
tp3225
a(g2938
g577
g3
tp3226
a(g2938
g579
g3
tp3227
a(g2938
g581
g3
tp3228
a(g2938
g583
g3
tp3229
a(g2938
g585
g3
tp3230
a(g2938
g587
g3
tp3231
a(g2938
g589
g3
tp3232
a(g2938
g591
g3
tp3233
a(g2938
g593
g3
tp3234
a(g2938
g595
g3
tp3235
a(g2938
g597
g3
tp3236
a(g2938
g599
g3
tp3237
a(g2938
g601
g3
tp3238
a(g2938
g603
g3
tp3239
a(g2938
g605
g3
tp3240
a(g2938
g607
g3
tp3241
a(g2938
g609
g3
tp3242
a(g2938
g611
g3
tp3243
a(g2938
g613
g3
tp3244
a(g2938
g615
g3
tp3245
a(g2938
g617
g3
tp3246
a(g2938
g619
g3
tp3247
a(g2938
g621
g3
tp3248
a(g2938
g623
g3
tp3249
a(g2938
g625
g3
tp3250
a(g2938
g627
g3
tp3251
a(g2938
g629
g3
tp3252
a(g2938
g631
g3
tp3253
a(g2938
g633
g3
tp3254
a(g2938
g635
g3
tp3255
a(g2938
g637
g3
tp3256
a(g2938
g639
g3
tp3257
a(g2938
g641
g3
tp3258
a(g2938
g643
g3
tp3259
a(g2938
g645
g3
tp3260
a(g2938
g647
g3
tp3261
a(g2938
g649
g3
tp3262
a(g2938
g651
g3
tp3263
a(g2938
g653
g3
tp3264
a(g2938
g655
g3
tp3265
a(g2938
g657
g3
tp3266
a(g2938
g659
g3
tp3267
a(g2938
g661
g3
tp3268
a(g2938
g663
g3
tp3269
a(g2938
g665
g3
tp3270
a(g2938
g667
g3
tp3271
a(g2938
g669
g3
tp3272
a(g2938
g671
g3
tp3273
a(g2938
g673
g3
tp3274
a(g2938
g675
g3
tp3275
a(g2938
g677
g3
tp3276
a(g2938
g679
g3
tp3277
a(g2938
g681
g3
tp3278
a(g2938
g683
g3
tp3279
a(g2938
g685
g3
tp3280
a(g2938
g687
g3
tp3281
a(g2938
g689
g3
tp3282
a(g2938
g691
g3
tp3283
a(g2938
g693
g3
tp3284
a(g2938
g695
g3
tp3285
a(g2938
g697
g3
tp3286
a(g2938
g699
g3
tp3287
a(g2938
g701
g3
tp3288
a(g2938
g703
g3
tp3289
a(g2938
g705
g3
tp3290
a(g2938
g707
g3
tp3291
a(g2938
g709
g3
tp3292
a(g2938
g711
g3
tp3293
a(g2938
g713
g3
tp3294
a(g2938
g715
g3
tp3295
a(g2938
g717
g3
tp3296
a(g2938
g719
g3
tp3297
a(g2938
g721
g3
tp3298
a(g2938
g723
g3
tp3299
a(g2938
g725
g3
tp3300
a(g2938
g727
g3
tp3301
a(g2938
g729
g3
tp3302
a(g2938
g731
g3
tp3303
a(g2938
g733
g3
tp3304
a(g2938
g735
g3
tp3305
a(g2938
g737
g3
tp3306
a(g2938
g739
g3
tp3307
a(g2938
g741
g3
tp3308
a(g2938
g743
g3
tp3309
a(g2938
g745
g3
tp3310
a(g2938
g747
g3
tp3311
a(g2938
g749
g3
tp3312
a(g2938
g751
g3
tp3313
a(g2938
g753
g3
tp3314
a(g2938
g755
g3
tp3315
a(g2938
g757
g3
tp3316
a(g2938
g759
g3
tp3317
a(g2938
g761
g3
tp3318
a(g2938
g763
g3
tp3319
a(g2938
g765
g3
tp3320
a(g2938
g767
g3
tp3321
a(g2938
g769
g3
tp3322
a(g2938
g771
g3
tp3323
a(g2938
g773
g3
tp3324
a(g2938
g775
g3
tp3325
a(g2938
g777
g3
tp3326
a(g2938
g779
g3
tp3327
a(g2938
g781
g3
tp3328
a(g2938
g783
g3
tp3329
a(g2938
g785
g3
tp3330
a(g2938
g787
g3
tp3331
a(g2938
g789
g3
tp3332
a(g2938
g791
g3
tp3333
a(g2938
g793
g3
tp3334
a(g2938
g795
g3
tp3335
a(g2938
g797
g3
tp3336
a(g2938
g799
g3
tp3337
a(g2938
g801
g3
tp3338
a(g2938
g803
g3
tp3339
a(g2938
g805
g3
tp3340
a(g2938
g807
g3
tp3341
a(g2938
g809
g3
tp3342
a(g2938
g811
g3
tp3343
a(g2938
g813
g3
tp3344
a(g2938
g815
g3
tp3345
a(g2938
g817
g3
tp3346
a(g2938
g819
g3
tp3347
a(g2938
g821
g3
tp3348
a(g2938
g823
g3
tp3349
a(g2938
g825
g3
tp3350
a(g2938
g827
g3
tp3351
a(g2938
g829
g3
tp3352
a(g2938
g831
g3
tp3353
a(g2938
g833
g3
tp3354
a(g2938
g835
g3
tp3355
a(g2938
g837
g3
tp3356
a(g2938
g839
g3
tp3357
a(g2938
g841
g3
tp3358
a(g2938
g843
g3
tp3359
a(g2938
g845
g3
tp3360
a(g2938
g847
g3
tp3361
a(g2938
g849
g3
tp3362
a(g2938
g851
g3
tp3363
a(g2938
g853
g3
tp3364
a(g2938
g855
g3
tp3365
a(g2938
g857
g3
tp3366
a(g2938
g859
g3
tp3367
a(g2938
g861
g3
tp3368
a(g2938
g863
g3
tp3369
a(g2938
g865
g3
tp3370
a(g2938
g867
g3
tp3371
a(g2938
g869
g3
tp3372
a(g2938
g871
g3
tp3373
a(g2938
g873
g3
tp3374
a(g2938
g875
g3
tp3375
a(g2938
g877
g3
tp3376
a(g2938
g879
g3
tp3377
a(g2938
g881
g3
tp3378
a(g2938
g883
g3
tp3379
a(g2938
g885
g3
tp3380
a(g2938
g887
g3
tp3381
a(g2938
g889
g3
tp3382
a(g2938
g891
g3
tp3383
a(g2938
g893
g3
tp3384
a(g2938
g895
g3
tp3385
a(g2938
g897
g3
tp3386
a(g2938
g899
g3
tp3387
a(g2938
g901
g3
tp3388
a(g2938
g903
g3
tp3389
a(g2938
g905
g3
tp3390
a(g2938
g907
g3
tp3391
a(g2938
g909
g3
tp3392
a(g2938
g911
g3
tp3393
a(g2938
g913
g3
tp3394
a(g2938
g915
g3
tp3395
a(g2938
g917
g3
tp3396
a(g2938
g919
g3
tp3397
a(g2938
g921
g3
tp3398
a(g2938
g923
g3
tp3399
a(g2938
g925
g3
tp3400
a(g2938
g927
g3
tp3401
a(g2938
g929
g3
tp3402
a(g2938
g931
g3
tp3403
a(g2938
g933
g3
tp3404
a(g2938
g935
g3
tp3405
a(g2938
g937
g3
tp3406
a(g2938
g939
g3
tp3407
a(g2938
g941
g3
tp3408
a(g2938
g943
g3
tp3409
a(g2938
g945
g3
tp3410
a(g2938
g947
g3
tp3411
a(g2938
g949
g3
tp3412
a(g2938
g951
g3
tp3413
a(g2938
g953
g3
tp3414
a(g2938
g955
g3
tp3415
a(g2938
g957
g3
tp3416
a(g2938
g959
g3
tp3417
a(g2938
g961
g3
tp3418
a(g2938
g963
g3
tp3419
a(g2938
g965
g3
tp3420
a(g2938
g967
g3
tp3421
a(g2938
g969
g3
tp3422
a(g2938
g971
g3
tp3423
a(g2938
g973
g3
tp3424
a(g2938
g975
g3
tp3425
a(g2938
g977
g3
tp3426
a(g2938
g979
g3
tp3427
a(g2938
g981
g3
tp3428
a(g2938
g983
g3
tp3429
a(g2938
g985
g3
tp3430
a(g2938
g987
g3
tp3431
a(g2938
g989
g3
tp3432
a(g2938
g991
g3
tp3433
a(g2938
g993
g3
tp3434
a(g2938
g995
g3
tp3435
a(g2938
g997
g3
tp3436
a(g2938
g999
g3
tp3437
a(g2938
g1001
g3
tp3438
a(g2938
g1003
g3
tp3439
a(g2938
g1005
g3
tp3440
a(g2938
g1007
g3
tp3441
a(g2938
g1009
g3
tp3442
a(g2938
g1011
g3
tp3443
a(g2938
g1013
g3
tp3444
a(g2938
g1015
g3
tp3445
a(g2938
g1017
g3
tp3446
a(g2938
g1019
g3
tp3447
a(g2938
g1021
g3
tp3448
a(g2938
g1023
g3
tp3449
a(g2938
g1025
g3
tp3450
a(g2938
g1027
g3
tp3451
a(g2938
g1029
g3
tp3452
a(g2938
g1031
g3
tp3453
a(g2938
g1033
g3
tp3454
a(g2938
g1035
g3
tp3455
a(g2938
g1037
g3
tp3456
a(g2938
g1039
g3
tp3457
a(g2938
g1041
g3
tp3458
a(g2938
g1043
g3
tp3459
a(g2938
g1045
g3
tp3460
a(g2938
g1047
g3
tp3461
a(g2938
g1049
g3
tp3462
a(g2938
g1051
g3
tp3463
a(g2938
g1053
g3
tp3464
a(g2938
g1055
g3
tp3465
a(g2938
g1057
g3
tp3466
a(g2938
g1059
g3
tp3467
a(g2938
g1061
g3
tp3468
a(g2938
g1063
g3
tp3469
a(g2938
g1065
g3
tp3470
a(g2938
g1067
g3
tp3471
a(g2938
g1069
g3
tp3472
a(g2938
g1071
g3
tp3473
a(g2938
g1073
g3
tp3474
a(g2938
g1075
g3
tp3475
a(g2938
g1077
g3
tp3476
a(g2938
g1079
g3
tp3477
a(g2938
g1081
g3
tp3478
a(g2938
g1083
g3
tp3479
a(g2938
g1085
g3
tp3480
a(g2938
g1087
g3
tp3481
a(g2938
g1089
g3
tp3482
a(g2938
g1091
g3
tp3483
a(g2938
g1093
g3
tp3484
a(g2938
g1095
g3
tp3485
a(g2938
g1097
g3
tp3486
a(g2938
g1099
g3
tp3487
a(g2938
g1101
g3
tp3488
a(g2938
g1103
g3
tp3489
a(g2938
g1105
g3
tp3490
a(g2938
g1107
g3
tp3491
a(g2938
g1109
g3
tp3492
a(g2938
g1111
g3
tp3493
a(g2938
g1113
g3
tp3494
a(g2938
g1115
g3
tp3495
a(g2938
g1117
g3
tp3496
a(g2938
g1119
g3
tp3497
a(g2938
g1121
g3
tp3498
a(g2938
g1123
g3
tp3499
a(g2938
g1125
g3
tp3500
a(g2938
g1127
g3
tp3501
a(g2938
g1129
g3
tp3502
a(g2938
g1131
g3
tp3503
a(g2938
g1133
g3
tp3504
a(g2938
g1135
g3
tp3505
a(g2938
g1137
g3
tp3506
a(g2938
g1139
g3
tp3507
a(g2938
g1141
g3
tp3508
a(g2938
g1143
g3
tp3509
a(g2938
g1145
g3
tp3510
a(g2938
g1147
g3
tp3511
a(g2938
g1149
g3
tp3512
a(g2938
g1151
g3
tp3513
a(g2938
g1153
g3
tp3514
a(g2938
g1155
g3
tp3515
a(g2938
g1157
g3
tp3516
a(g2938
g1159
g3
tp3517
a(g2938
g1161
g3
tp3518
a(g2938
g1163
g3
tp3519
a(g2938
g1165
g3
tp3520
a(g2938
g1167
g3
tp3521
a(g2938
g1169
g3
tp3522
a(g2938
g1171
g3
tp3523
a(g2938
g1173
g3
tp3524
a(g2938
g1175
g3
tp3525
a(g2938
g1177
g3
tp3526
a(g2938
g1179
g3
tp3527
a(g2938
g1181
g3
tp3528
a(g2938
g1183
g3
tp3529
a(g2938
g1185
g3
tp3530
a(g2938
g1187
g3
tp3531
a(g2938
g1189
g3
tp3532
a(g2938
g1191
g3
tp3533
a(g2938
g1193
g3
tp3534
a(g2938
g1195
g3
tp3535
a(g2938
g1197
g3
tp3536
a(g2938
g1199
g3
tp3537
a(g2938
g1201
g3
tp3538
a(g2938
g1203
g3
tp3539
a(g2938
g1205
g3
tp3540
a(g2938
g1207
g3
tp3541
a(g2938
g1209
g3
tp3542
a(g2938
g1211
g3
tp3543
a(g2938
g1213
g3
tp3544
a(g2938
g1215
g3
tp3545
a(g2938
g1217
g3
tp3546
a(g2938
g1219
g3
tp3547
a(g2938
g1221
g3
tp3548
a(g2938
g1223
g3
tp3549
a(g2938
g1225
g3
tp3550
a(g2938
g1227
g3
tp3551
a(g2938
g1229
g3
tp3552
a(g2938
g1231
g3
tp3553
a(g2938
g1233
g3
tp3554
a(g2938
g1235
g3
tp3555
a(g2938
g1237
g3
tp3556
a(g2938
g1239
g3
tp3557
a(g2938
g1241
g3
tp3558
a(g2938
g1243
g3
tp3559
a(g2938
g1245
g3
tp3560
a(g2938
g1247
g3
tp3561
a(g2938
g1249
g3
tp3562
a(g2938
g1251
g3
tp3563
a(g2938
g1253
g3
tp3564
a(g2938
g1255
g3
tp3565
a(g2938
g1257
g3
tp3566
a(g2938
g1259
g3
tp3567
a(g2938
g1261
g3
tp3568
a(g2938
g1263
g3
tp3569
a(g2938
g1265
g3
tp3570
a(g2938
g1267
g3
tp3571
a(g2938
g1269
g3
tp3572
a(g2938
g1271
g3
tp3573
a(g2938
g1273
g3
tp3574
a(g2938
g1275
g3
tp3575
a(g2938
g1277
g3
tp3576
a(g2938
g1279
g3
tp3577
a(g2938
g1281
g3
tp3578
a(g2938
g1283
g3
tp3579
a(g2938
g1285
g3
tp3580
a(g2938
g1287
g3
tp3581
a(g2938
g1289
g3
tp3582
a(g2938
g1291
g3
tp3583
a(g2938
g1293
g3
tp3584
a(g2938
g1295
g3
tp3585
a(g2938
g1297
g3
tp3586
a(g2938
g1299
g3
tp3587
a(g2938
g1301
g3
tp3588
a(g2938
g1303
g3
tp3589
a(g2938
g1305
g3
tp3590
a(g2938
g1307
g3
tp3591
a(g2938
g1309
g3
tp3592
a(g2938
g1311
g3
tp3593
a(g2938
g1313
g3
tp3594
a(g2938
g1315
g3
tp3595
a(g2938
g1317
g3
tp3596
a(g2938
g1319
g3
tp3597
a(g2938
g1321
g3
tp3598
a(g2938
g1323
g3
tp3599
a(g2938
g1325
g3
tp3600
a(g2938
g1327
g3
tp3601
a(g2938
g1329
g3
tp3602
a(g2938
g1331
g3
tp3603
a(g2938
g1333
g3
tp3604
a(g2938
g1335
g3
tp3605
a(g2938
g1337
g3
tp3606
a(g2938
g1339
g3
tp3607
a(g2938
g1341
g3
tp3608
a(g2938
g1343
g3
tp3609
a(g2938
g1345
g3
tp3610
a(g2938
g1347
g3
tp3611
a(g2938
g1349
g3
tp3612
a(g2938
g1351
g3
tp3613
a(g2938
g1353
g3
tp3614
a(g2938
g1355
g3
tp3615
a(g2938
g1357
g3
tp3616
a(g2938
g1359
g3
tp3617
a(g2938
g1361
g3
tp3618
a(g2938
g1363
g3
tp3619
a(g2938
g1365
g3
tp3620
a(g2938
g1367
g3
tp3621
a(g2938
g1369
g3
tp3622
a(g2938
g1371
g3
tp3623
a(g2938
g1373
g3
tp3624
a(g2938
g1375
g3
tp3625
a(g2938
g1377
g3
tp3626
a(g2938
g1379
g3
tp3627
a(g2938
g1381
g3
tp3628
a(g2938
g1383
g3
tp3629
a(g2938
g1385
g3
tp3630
a(g2938
g1387
g3
tp3631
a(g2938
g1389
g3
tp3632
a(g2938
g1391
g3
tp3633
a(g2938
g1393
g3
tp3634
a(g2938
g1395
g3
tp3635
a(g2938
g1397
g3
tp3636
a(g2938
g1399
g3
tp3637
a(g2938
g1401
g3
tp3638
a(g2938
g1403
g3
tp3639
a(g2938
g1405
g3
tp3640
a(g2938
g1407
g3
tp3641
a(g2938
g1409
g3
tp3642
a(g2938
g1411
g3
tp3643
a(g2938
g1413
g3
tp3644
a(g2938
g1415
g3
tp3645
a(g2938
g1417
g3
tp3646
a(g2938
g1419
g3
tp3647
a(g2938
g1421
g3
tp3648
a(g2938
g1423
g3
tp3649
a(g2938
g1425
g3
tp3650
a(g2938
g1427
g3
tp3651
a(g2938
g1429
g3
tp3652
a(g2938
g1431
g3
tp3653
a(g2938
g1433
g3
tp3654
a(g2938
g1435
g3
tp3655
a(g2938
g1437
g3
tp3656
a(g2938
g1439
g3
tp3657
a(g2938
g1441
g3
tp3658
a(g2938
g1443
g3
tp3659
a(g2938
g1445
g3
tp3660
a(g2938
g1447
g3
tp3661
a(g2938
g1449
g3
tp3662
a(g2938
g1451
g3
tp3663
a(g2938
g1453
g3
tp3664
a(g2938
g1455
g3
tp3665
a(g2938
g1457
g3
tp3666
a(g2938
g1459
g3
tp3667
a(g2938
g1461
g3
tp3668
a(g2938
g1463
g3
tp3669
a(g2938
g1465
g3
tp3670
a(g2938
g1467
g3
tp3671
a(g2938
g1469
g3
tp3672
a(g2938
g1471
g3
tp3673
a(g2938
g1473
g3
tp3674
a(g2938
g1475
g3
tp3675
a(g2938
g1477
g3
tp3676
a(g2938
g1479
g3
tp3677
a(g2938
g1481
g3
tp3678
a(g2938
g1483
g3
tp3679
a(g2938
g1485
g3
tp3680
a(g2938
g1487
g3
tp3681
a(g2938
g1489
g3
tp3682
a(g2938
g1491
g3
tp3683
a(g2938
g1493
g3
tp3684
a(g2938
g1495
g3
tp3685
a(g2938
g1497
g3
tp3686
a(g2938
g1499
g3
tp3687
a(g2938
g1501
g3
tp3688
a(g2938
g1503
g3
tp3689
a(g2938
g1505
g3
tp3690
a(g2938
g1507
g3
tp3691
a(g2938
g1509
g3
tp3692
a(g2938
g1511
g3
tp3693
a(g2938
g1513
g3
tp3694
a(g2938
g1515
g3
tp3695
a(g2938
g1517
g3
tp3696
a(g2938
g1519
g3
tp3697
a(g2938
g1521
g3
tp3698
a(g2938
g1523
g3
tp3699
a(g2938
g1525
g3
tp3700
a(g2938
g1527
g3
tp3701
a(g2938
g1529
g3
tp3702
a(g2938
g1531
g3
tp3703
a(g2938
g1533
g3
tp3704
a(g2938
g1535
g3
tp3705
a(g2938
g1537
g3
tp3706
a(g2938
g1539
g3
tp3707
a(g2938
g1541
g3
tp3708
a(g2938
g1543
g3
tp3709
a(g2938
g1545
g3
tp3710
a(g2938
g1547
g3
tp3711
a(g2938
g1549
g3
tp3712
a(g2938
g1551
g3
tp3713
a(g2938
g1553
g3
tp3714
a(g2938
g1555
g3
tp3715
a(g2938
g1557
g3
tp3716
a(g2938
g1559
g3
tp3717
a(g2938
g1561
g3
tp3718
a(g2938
g1563
g3
tp3719
a(g2938
g1565
g3
tp3720
a(g2938
g1567
g3
tp3721
a(g2938
g1569
g3
tp3722
a(g2938
g1571
g3
tp3723
a(g2938
g1573
g3
tp3724
a(g2938
g1575
g3
tp3725
a(g2938
g1577
g3
tp3726
a(g2938
g1579
g3
tp3727
a(g2938
g1581
g3
tp3728
a(g2938
g1583
g3
tp3729
a(g2938
g1585
g3
tp3730
a(g2938
g1587
g3
tp3731
a(g2938
g1589
g3
tp3732
a(g2938
g1591
g3
tp3733
a(g2938
g1593
g3
tp3734
a(g2938
g1595
g3
tp3735
a(g2938
g1597
g3
tp3736
a(g2938
g1599
g3
tp3737
a(g2938
g1601
g3
tp3738
a(g2938
g1603
g3
tp3739
a(g2938
g1605
g3
tp3740
a(g2938
g1607
g3
tp3741
a(g2938
g1609
g3
tp3742
a(g2938
g1611
g3
tp3743
a(g2938
g1613
g3
tp3744
a(g2938
g1615
g3
tp3745
a(g2938
g1617
g3
tp3746
a(g2938
g1619
g3
tp3747
a(g2938
g1621
g3
tp3748
a(g2938
g1623
g3
tp3749
a(g2938
g1625
g3
tp3750
a(g2938
g1627
g3
tp3751
a(g2938
g1629
g3
tp3752
a(g2938
g1631
g3
tp3753
a(g2938
g1633
g3
tp3754
a(g2938
g1635
g3
tp3755
a(g2938
g1637
g3
tp3756
a(g2938
g1639
g3
tp3757
a(g2938
g1641
g3
tp3758
a(g2938
g1643
g3
tp3759
a(g2938
g1645
g3
tp3760
a(g2938
g1647
g3
tp3761
a(g2938
g1649
g3
tp3762
a(g2938
g1651
g3
tp3763
a(g2938
g1653
g3
tp3764
a(g2938
g1655
g3
tp3765
a(g2938
g1657
g3
tp3766
a(g2938
g1659
g3
tp3767
a(g2938
g1661
g3
tp3768
a(g2938
g1663
g3
tp3769
a(g2938
g1665
g3
tp3770
a(g2938
g1667
g3
tp3771
a(g2938
g1669
g3
tp3772
a(g2938
g1671
g3
tp3773
a(g2938
g1673
g3
tp3774
a(g2938
g1675
g3
tp3775
a(g2938
g1677
g3
tp3776
a(g2938
g1679
g3
tp3777
a(g2938
g1681
g3
tp3778
a(g2938
g1683
g3
tp3779
a(g2938
g1685
g3
tp3780
a(g2938
g1687
g3
tp3781
a(g2938
g1689
g3
tp3782
a(g2938
g1691
g3
tp3783
a(g2938
g1693
g3
tp3784
a(g2938
g1695
g3
tp3785
a(g2938
g1697
g3
tp3786
a(g2938
g1699
g3
tp3787
a(g2938
g1701
g3
tp3788
a(g2938
g1703
g3
tp3789
a(g2938
g1705
g3
tp3790
a(g2938
g1707
g3
tp3791
a(g2938
g1709
g3
tp3792
a(g2938
g1711
g3
tp3793
a(g2938
g1713
g3
tp3794
a(g2938
g1715
g3
tp3795
a(g2938
g1717
g3
tp3796
a(g2938
g1719
g3
tp3797
a(g2938
g1721
g3
tp3798
a(g2938
g1723
g3
tp3799
a(g2938
g1725
g3
tp3800
a(g2938
g1727
g3
tp3801
a(g2938
g1729
g3
tp3802
a(g2938
g1731
g3
tp3803
a(g2938
g1733
g3
tp3804
a(g2938
g1735
g3
tp3805
a(g2938
g1737
g3
tp3806
a(g2938
g1739
g3
tp3807
a(g2938
g1741
g3
tp3808
a(g2938
g1743
g3
tp3809
a(g2938
g1745
g3
tp3810
a(g2938
g1747
g3
tp3811
a(g2938
g1749
g3
tp3812
a(g2938
g1751
g3
tp3813
a(g2938
g1753
g3
tp3814
a(g2938
g1755
g3
tp3815
a(g2938
g1757
g3
tp3816
a(g2938
g1759
g3
tp3817
a(g2938
g1761
g3
tp3818
a(g2938
g1763
g3
tp3819
a(g2938
g1765
g3
tp3820
a(g2938
g1767
g3
tp3821
a(g2938
g1769
g3
tp3822
a(g2938
g1771
g3
tp3823
a(g2938
g1773
g3
tp3824
a(g2938
g1775
g3
tp3825
a(g2938
g1777
g3
tp3826
a(g2938
g1779
g3
tp3827
a(g2938
g1781
g3
tp3828
a(g2938
g1783
g3
tp3829
a(g2938
g1785
g3
tp3830
a(g2938
g1787
g3
tp3831
a(g2938
g1789
g3
tp3832
a(g2938
g1791
g3
tp3833
a(g2938
g1793
g3
tp3834
a(g2938
g1795
g3
tp3835
a(g2938
g1797
g3
tp3836
a(g2938
g1799
g3
tp3837
a(g2938
g1801
g3
tp3838
a(g2938
g1803
g3
tp3839
a(g2938
g1805
g3
tp3840
a(g2938
g1807
g3
tp3841
a(g2938
g1809
g3
tp3842
a(g2938
g1811
g3
tp3843
a(g2938
g1813
g3
tp3844
a(g2938
g1815
g3
tp3845
a(g2938
g1817
g3
tp3846
a(g2938
g1819
g3
tp3847
a(g2938
g1821
g3
tp3848
a(g2938
g1823
g3
tp3849
a(g2938
g1825
g3
tp3850
a(g2938
g1827
g3
tp3851
a(g2938
g1829
g3
tp3852
a(g2938
g1831
g3
tp3853
a(g2938
g1833
g3
tp3854
a(g2938
g1835
g3
tp3855
a(g2938
g1837
g3
tp3856
a(g2938
g1839
g3
tp3857
a(g2938
g1841
g3
tp3858
a(g2938
g1843
g3
tp3859
a(g2938
g1845
g3
tp3860
a(g2938
g1847
g3
tp3861
a(g2938
g1849
g3
tp3862
a(g2938
g1851
g3
tp3863
a(g2938
g1853
g3
tp3864
a(g2938
g1855
g3
tp3865
a(g2938
g1857
g3
tp3866
a(g2938
g1859
g3
tp3867
a(g2938
g1861
g3
tp3868
a(g2938
g1863
g3
tp3869
a(g2938
g1865
g3
tp3870
a(g2938
g1867
g3
tp3871
a(g2938
g1869
g3
tp3872
a(g2938
g1871
g3
tp3873
a(g2938
g1873
g3
tp3874
a(g2938
g1875
g3
tp3875
a(g2938
g1877
g3
tp3876
a(g2938
g1879
g3
tp3877
a(g2938
g1881
g3
tp3878
a(g2938
g1883
g3
tp3879
a(g2938
g1885
g3
tp3880
a(g2938
g1887
g3
tp3881
a(g2938
g1889
g3
tp3882
a(g2938
g1891
g3
tp3883
a(g2938
g1893
g3
tp3884
a(g2938
g1895
g3
tp3885
a(g2938
g1897
g3
tp3886
a(g2938
g1899
g3
tp3887
a(g2938
g1901
g3
tp3888
a(g2938
g1903
g3
tp3889
a(g2938
g1905
g3
tp3890
a(g2938
g1907
g3
tp3891
a(g2938
g1909
g3
tp3892
a(g2938
g1911
g3
tp3893
a(g2938
g1913
g3
tp3894
a(g2938
g1915
g3
tp3895
a(g2938
g1917
g3
tp3896
a(g2938
g1919
g3
tp3897
a(g2938
g1921
g3
tp3898
a(g2938
g1923
g3
tp3899
a(g2938
g1925
g3
tp3900
a(g2938
g1927
g3
tp3901
a(g2938
g1929
g3
tp3902
a(g2938
g1931
g3
tp3903
a(g2938
g1933
g3
tp3904
a(g2938
g1935
g3
tp3905
a(g2938
g1937
g3
tp3906
a(g2938
g1939
g3
tp3907
a(g2938
g1941
g3
tp3908
a(g2938
g1943
g3
tp3909
a(g2938
g1945
g3
tp3910
a(g2938
g1947
g3
tp3911
a(g2938
g1949
g3
tp3912
a(g2938
g1951
g3
tp3913
a(g2938
g1953
g3
tp3914
a(g2938
g1955
g3
tp3915
a(g2938
g1957
g3
tp3916
a(S'HA1E'
p3917
g2
g3
tp3918
a(g3917
g5
g3
tp3919
a(g3917
g7
g3
tp3920
a(g3917
g9
g3
tp3921
a(g3917
g11
g3
tp3922
a(g3917
g13
g3
tp3923
a(g3917
g15
g3
tp3924
a(g3917
g17
g3
tp3925
a(g3917
g19
g3
tp3926
a(g3917
g21
g3
tp3927
a(g3917
g23
g3
tp3928
a(g3917
g25
g3
tp3929
a(g3917
g27
g3
tp3930
a(g3917
g29
g3
tp3931
a(g3917
g31
g3
tp3932
a(g3917
g33
g3
tp3933
a(g3917
g35
g3
tp3934
a(g3917
g37
g3
tp3935
a(g3917
g39
g3
tp3936
a(g3917
g41
g3
tp3937
a(g3917
g43
g3
tp3938
a(g3917
g45
g3
tp3939
a(g3917
g47
g3
tp3940
a(g3917
g49
g3
tp3941
a(g3917
g51
g3
tp3942
a(g3917
g53
g3
tp3943
a(g3917
g55
g3
tp3944
a(g3917
g57
g3
tp3945
a(g3917
g59
g3
tp3946
a(g3917
g61
g3
tp3947
a(g3917
g63
g3
tp3948
a(g3917
g65
g3
tp3949
a(g3917
g67
g3
tp3950
a(g3917
g69
g3
tp3951
a(g3917
g71
g3
tp3952
a(g3917
g73
g3
tp3953
a(g3917
g75
g3
tp3954
a(g3917
g77
g3
tp3955
a(g3917
g79
g3
tp3956
a(g3917
g81
g3
tp3957
a(g3917
g83
g3
tp3958
a(g3917
g85
g3
tp3959
a(g3917
g87
g3
tp3960
a(g3917
g89
g3
tp3961
a(g3917
g91
g3
tp3962
a(g3917
g93
g3
tp3963
a(g3917
g95
g3
tp3964
a(g3917
g97
g3
tp3965
a(g3917
g99
g3
tp3966
a(g3917
g101
g3
tp3967
a(g3917
g103
g3
tp3968
a(g3917
g105
g3
tp3969
a(g3917
g107
g3
tp3970
a(g3917
g109
g3
tp3971
a(g3917
g111
g3
tp3972
a(g3917
g113
g3
tp3973
a(g3917
g115
g3
tp3974
a(g3917
g117
g3
tp3975
a(g3917
g119
g3
tp3976
a(g3917
g121
g3
tp3977
a(g3917
g123
g3
tp3978
a(g3917
g125
g3
tp3979
a(g3917
g127
g3
tp3980
a(g3917
g129
g3
tp3981
a(g3917
g131
g3
tp3982
a(g3917
g133
g3
tp3983
a(g3917
g135
g3
tp3984
a(g3917
g137
g3
tp3985
a(g3917
g139
g3
tp3986
a(g3917
g141
g3
tp3987
a(g3917
g143
g3
tp3988
a(g3917
g145
g3
tp3989
a(g3917
g147
g3
tp3990
a(g3917
g149
g3
tp3991
a(g3917
g151
g3
tp3992
a(g3917
g153
g3
tp3993
a(g3917
g155
g3
tp3994
a(g3917
g157
g3
tp3995
a(g3917
g159
g3
tp3996
a(g3917
g161
g3
tp3997
a(g3917
g163
g3
tp3998
a(g3917
g165
g3
tp3999
a(g3917
g167
g3
tp4000
a(g3917
g169
g3
tp4001
a(g3917
g171
g3
tp4002
a(g3917
g173
g3
tp4003
a(g3917
g175
g3
tp4004
a(g3917
g177
g3
tp4005
a(g3917
g179
g3
tp4006
a(g3917
g181
g3
tp4007
a(g3917
g183
g3
tp4008
a(g3917
g185
g3
tp4009
a(g3917
g187
g3
tp4010
a(g3917
g189
g3
tp4011
a(g3917
g191
g3
tp4012
a(g3917
g193
g3
tp4013
a(g3917
g195
g3
tp4014
a(g3917
g197
g3
tp4015
a(g3917
g199
g3
tp4016
a(g3917
g201
g3
tp4017
a(g3917
g203
g3
tp4018
a(g3917
g205
g3
tp4019
a(g3917
g207
g3
tp4020
a(g3917
g209
g3
tp4021
a(g3917
g211
g3
tp4022
a(g3917
g213
g3
tp4023
a(g3917
g215
g3
tp4024
a(g3917
g217
g3
tp4025
a(g3917
g219
g3
tp4026
a(g3917
g221
g3
tp4027
a(g3917
g223
g3
tp4028
a(g3917
g225
g3
tp4029
a(g3917
g227
g3
tp4030
a(g3917
g229
g3
tp4031
a(g3917
g231
g3
tp4032
a(g3917
g233
g3
tp4033
a(g3917
g235
g3
tp4034
a(g3917
g237
g3
tp4035
a(g3917
g239
g3
tp4036
a(g3917
g241
g3
tp4037
a(g3917
g243
g3
tp4038
a(g3917
g245
g3
tp4039
a(g3917
g247
g3
tp4040
a(g3917
g249
g3
tp4041
a(g3917
g251
g3
tp4042
a(g3917
g253
g3
tp4043
a(g3917
g255
g3
tp4044
a(g3917
g257
g3
tp4045
a(g3917
g259
g3
tp4046
a(g3917
g261
g3
tp4047
a(g3917
g263
g3
tp4048
a(g3917
g265
g3
tp4049
a(g3917
g267
g3
tp4050
a(g3917
g269
g3
tp4051
a(g3917
g271
g3
tp4052
a(g3917
g273
g3
tp4053
a(g3917
g275
g3
tp4054
a(g3917
g277
g3
tp4055
a(g3917
g279
g3
tp4056
a(g3917
g281
g3
tp4057
a(g3917
g283
g3
tp4058
a(g3917
g285
g3
tp4059
a(g3917
g287
g3
tp4060
a(g3917
g289
g3
tp4061
a(g3917
g291
g3
tp4062
a(g3917
g293
g3
tp4063
a(g3917
g295
g3
tp4064
a(g3917
g297
g3
tp4065
a(g3917
g299
g3
tp4066
a(g3917
g301
g3
tp4067
a(g3917
g303
g3
tp4068
a(g3917
g305
g3
tp4069
a(g3917
g307
g3
tp4070
a(g3917
g309
g3
tp4071
a(g3917
g311
g3
tp4072
a(g3917
g313
g3
tp4073
a(g3917
g315
g3
tp4074
a(g3917
g317
g3
tp4075
a(g3917
g319
g3
tp4076
a(g3917
g321
g3
tp4077
a(g3917
g323
g3
tp4078
a(g3917
g325
g3
tp4079
a(g3917
g327
g3
tp4080
a(g3917
g329
g3
tp4081
a(g3917
g331
g3
tp4082
a(g3917
g333
g3
tp4083
a(g3917
g335
g3
tp4084
a(g3917
g337
g3
tp4085
a(g3917
g339
g3
tp4086
a(g3917
g341
g3
tp4087
a(g3917
g343
g3
tp4088
a(g3917
g345
g3
tp4089
a(g3917
g347
g3
tp4090
a(g3917
g349
g3
tp4091
a(g3917
g351
g3
tp4092
a(g3917
g353
g3
tp4093
a(g3917
g355
g3
tp4094
a(g3917
g357
g3
tp4095
a(g3917
g359
g3
tp4096
a(g3917
g361
g3
tp4097
a(g3917
g363
g3
tp4098
a(g3917
g365
g3
tp4099
a(g3917
g367
g3
tp4100
a(g3917
g369
g3
tp4101
a(g3917
g371
g3
tp4102
a(g3917
g373
g3
tp4103
a(g3917
g375
g3
tp4104
a(g3917
g377
g3
tp4105
a(g3917
g379
g3
tp4106
a(g3917
g381
g3
tp4107
a(g3917
g383
g3
tp4108
a(g3917
g385
g3
tp4109
a(g3917
g387
g3
tp4110
a(g3917
g389
g3
tp4111
a(g3917
g391
g3
tp4112
a(g3917
g393
g3
tp4113
a(g3917
g395
g3
tp4114
a(g3917
g397
g3
tp4115
a(g3917
g399
g3
tp4116
a(g3917
g401
g3
tp4117
a(g3917
g403
g3
tp4118
a(g3917
g405
g3
tp4119
a(g3917
g407
g3
tp4120
a(g3917
g409
g3
tp4121
a(g3917
g411
g3
tp4122
a(g3917
g413
g3
tp4123
a(g3917
g415
g3
tp4124
a(g3917
g417
g3
tp4125
a(g3917
g419
g3
tp4126
a(g3917
g421
g3
tp4127
a(g3917
g423
g3
tp4128
a(g3917
g425
g3
tp4129
a(g3917
g427
g3
tp4130
a(g3917
g429
g3
tp4131
a(g3917
g431
g3
tp4132
a(g3917
g433
g3
tp4133
a(g3917
g435
g3
tp4134
a(g3917
g437
g3
tp4135
a(g3917
g439
g3
tp4136
a(g3917
g441
g3
tp4137
a(g3917
g443
g3
tp4138
a(g3917
g445
g3
tp4139
a(g3917
g447
g3
tp4140
a(g3917
g449
g3
tp4141
a(g3917
g451
g3
tp4142
a(g3917
g453
g3
tp4143
a(g3917
g455
g3
tp4144
a(g3917
g457
g3
tp4145
a(g3917
g459
g3
tp4146
a(g3917
g461
g3
tp4147
a(g3917
g463
g3
tp4148
a(g3917
g465
g3
tp4149
a(g3917
g467
g3
tp4150
a(g3917
g469
g3
tp4151
a(g3917
g471
g3
tp4152
a(g3917
g473
g3
tp4153
a(g3917
g475
g3
tp4154
a(g3917
g477
g3
tp4155
a(g3917
g479
g3
tp4156
a(g3917
g481
g3
tp4157
a(g3917
g483
g3
tp4158
a(g3917
g485
g3
tp4159
a(g3917
g487
g3
tp4160
a(g3917
g489
g3
tp4161
a(g3917
g491
g3
tp4162
a(g3917
g493
g3
tp4163
a(g3917
g495
g3
tp4164
a(g3917
g497
g3
tp4165
a(g3917
g499
g3
tp4166
a(g3917
g501
g3
tp4167
a(g3917
g503
g3
tp4168
a(g3917
g505
g3
tp4169
a(g3917
g507
g3
tp4170
a(g3917
g509
g3
tp4171
a(g3917
g511
g3
tp4172
a(g3917
g513
g3
tp4173
a(g3917
g515
g3
tp4174
a(g3917
g517
g3
tp4175
a(g3917
g519
g3
tp4176
a(g3917
g521
g3
tp4177
a(g3917
g523
g3
tp4178
a(g3917
g525
g3
tp4179
a(g3917
g527
g3
tp4180
a(g3917
g529
g3
tp4181
a(g3917
g531
g3
tp4182
a(g3917
g533
g3
tp4183
a(g3917
g535
g3
tp4184
a(g3917
g537
g3
tp4185
a(g3917
g539
g3
tp4186
a(g3917
g541
g3
tp4187
a(g3917
g543
g3
tp4188
a(g3917
g545
g3
tp4189
a(g3917
g547
g3
tp4190
a(g3917
g549
g3
tp4191
a(g3917
g551
g3
tp4192
a(g3917
g553
g3
tp4193
a(g3917
g555
g3
tp4194
a(g3917
g557
g3
tp4195
a(g3917
g559
g3
tp4196
a(g3917
g561
g3
tp4197
a(g3917
g563
g3
tp4198
a(g3917
g565
g3
tp4199
a(g3917
g567
g3
tp4200
a(g3917
g569
g3
tp4201
a(g3917
g571
g3
tp4202
a(g3917
g573
g3
tp4203
a(g3917
g575
g3
tp4204
a(g3917
g577
g3
tp4205
a(g3917
g579
g3
tp4206
a(g3917
g581
g3
tp4207
a(g3917
g583
g3
tp4208
a(g3917
g585
g3
tp4209
a(g3917
g587
g3
tp4210
a(g3917
g589
g3
tp4211
a(g3917
g591
g3
tp4212
a(g3917
g593
g3
tp4213
a(g3917
g595
g3
tp4214
a(g3917
g597
g3
tp4215
a(g3917
g599
g3
tp4216
a(g3917
g601
g3
tp4217
a(g3917
g603
g3
tp4218
a(g3917
g605
g3
tp4219
a(g3917
g607
g3
tp4220
a(g3917
g609
g3
tp4221
a(g3917
g611
g3
tp4222
a(g3917
g613
g3
tp4223
a(g3917
g615
g3
tp4224
a(g3917
g617
g3
tp4225
a(g3917
g619
g3
tp4226
a(g3917
g621
g3
tp4227
a(g3917
g623
g3
tp4228
a(g3917
g625
g3
tp4229
a(g3917
g627
g3
tp4230
a(g3917
g629
g3
tp4231
a(g3917
g631
g3
tp4232
a(g3917
g633
g3
tp4233
a(g3917
g635
g3
tp4234
a(g3917
g637
g3
tp4235
a(g3917
g639
g3
tp4236
a(g3917
g641
g3
tp4237
a(g3917
g643
g3
tp4238
a(g3917
g645
g3
tp4239
a(g3917
g647
g3
tp4240
a(g3917
g649
g3
tp4241
a(g3917
g651
g3
tp4242
a(g3917
g653
g3
tp4243
a(g3917
g655
g3
tp4244
a(g3917
g657
g3
tp4245
a(g3917
g659
g3
tp4246
a(g3917
g661
g3
tp4247
a(g3917
g663
g3
tp4248
a(g3917
g665
g3
tp4249
a(g3917
g667
g3
tp4250
a(g3917
g669
g3
tp4251
a(g3917
g671
g3
tp4252
a(g3917
g673
g3
tp4253
a(g3917
g675
g3
tp4254
a(g3917
g677
g3
tp4255
a(g3917
g679
g3
tp4256
a(g3917
g681
g3
tp4257
a(g3917
g683
g3
tp4258
a(g3917
g685
g3
tp4259
a(g3917
g687
g3
tp4260
a(g3917
g689
g3
tp4261
a(g3917
g691
g3
tp4262
a(g3917
g693
g3
tp4263
a(g3917
g695
g3
tp4264
a(g3917
g697
g3
tp4265
a(g3917
g699
g3
tp4266
a(g3917
g701
g3
tp4267
a(g3917
g703
g3
tp4268
a(g3917
g705
g3
tp4269
a(g3917
g707
g3
tp4270
a(g3917
g709
g3
tp4271
a(g3917
g711
g3
tp4272
a(g3917
g713
g3
tp4273
a(g3917
g715
g3
tp4274
a(g3917
g717
g3
tp4275
a(g3917
g719
g3
tp4276
a(g3917
g721
g3
tp4277
a(g3917
g723
g3
tp4278
a(g3917
g725
g3
tp4279
a(g3917
g727
g3
tp4280
a(g3917
g729
g3
tp4281
a(g3917
g731
g3
tp4282
a(g3917
g733
g3
tp4283
a(g3917
g735
g3
tp4284
a(g3917
g737
g3
tp4285
a(g3917
g739
g3
tp4286
a(g3917
g741
g3
tp4287
a(g3917
g743
g3
tp4288
a(g3917
g745
g3
tp4289
a(g3917
g747
g3
tp4290
a(g3917
g749
g3
tp4291
a(g3917
g751
g3
tp4292
a(g3917
g753
g3
tp4293
a(g3917
g755
g3
tp4294
a(g3917
g757
g3
tp4295
a(g3917
g759
g3
tp4296
a(g3917
g761
g3
tp4297
a(g3917
g763
g3
tp4298
a(g3917
g765
g3
tp4299
a(g3917
g767
g3
tp4300
a(g3917
g769
g3
tp4301
a(g3917
g771
g3
tp4302
a(g3917
g773
g3
tp4303
a(g3917
g775
g3
tp4304
a(g3917
g777
g3
tp4305
a(g3917
g779
g3
tp4306
a(g3917
g781
g3
tp4307
a(g3917
g783
g3
tp4308
a(g3917
g785
g3
tp4309
a(g3917
g787
g3
tp4310
a(g3917
g789
g3
tp4311
a(g3917
g791
g3
tp4312
a(g3917
g793
g3
tp4313
a(g3917
g795
g3
tp4314
a(g3917
g797
g3
tp4315
a(g3917
g799
g3
tp4316
a(g3917
g801
g3
tp4317
a(g3917
g803
g3
tp4318
a(g3917
g805
g3
tp4319
a(g3917
g807
g3
tp4320
a(g3917
g809
g3
tp4321
a(g3917
g811
g3
tp4322
a(g3917
g813
g3
tp4323
a(g3917
g815
g3
tp4324
a(g3917
g817
g3
tp4325
a(g3917
g819
g3
tp4326
a(g3917
g821
g3
tp4327
a(g3917
g823
g3
tp4328
a(g3917
g825
g3
tp4329
a(g3917
g827
g3
tp4330
a(g3917
g829
g3
tp4331
a(g3917
g831
g3
tp4332
a(g3917
g833
g3
tp4333
a(g3917
g835
g3
tp4334
a(g3917
g837
g3
tp4335
a(g3917
g839
g3
tp4336
a(g3917
g841
g3
tp4337
a(g3917
g843
g3
tp4338
a(g3917
g845
g3
tp4339
a(g3917
g847
g3
tp4340
a(g3917
g849
g3
tp4341
a(g3917
g851
g3
tp4342
a(g3917
g853
g3
tp4343
a(g3917
g855
g3
tp4344
a(g3917
g857
g3
tp4345
a(g3917
g859
g3
tp4346
a(g3917
g861
g3
tp4347
a(g3917
g863
g3
tp4348
a(g3917
g865
g3
tp4349
a(g3917
g867
g3
tp4350
a(g3917
g869
g3
tp4351
a(g3917
g871
g3
tp4352
a(g3917
g873
g3
tp4353
a(g3917
g875
g3
tp4354
a(g3917
g877
g3
tp4355
a(g3917
g879
g3
tp4356
a(g3917
g881
g3
tp4357
a(g3917
g883
g3
tp4358
a(g3917
g885
g3
tp4359
a(g3917
g887
g3
tp4360
a(g3917
g889
g3
tp4361
a(g3917
g891
g3
tp4362
a(g3917
g893
g3
tp4363
a(g3917
g895
g3
tp4364
a(g3917
g897
g3
tp4365
a(g3917
g899
g3
tp4366
a(g3917
g901
g3
tp4367
a(g3917
g903
g3
tp4368
a(g3917
g905
g3
tp4369
a(g3917
g907
g3
tp4370
a(g3917
g909
g3
tp4371
a(g3917
g911
g3
tp4372
a(g3917
g913
g3
tp4373
a(g3917
g915
g3
tp4374
a(g3917
g917
g3
tp4375
a(g3917
g919
g3
tp4376
a(g3917
g921
g3
tp4377
a(g3917
g923
g3
tp4378
a(g3917
g925
g3
tp4379
a(g3917
g927
g3
tp4380
a(g3917
g929
g3
tp4381
a(g3917
g931
g3
tp4382
a(g3917
g933
g3
tp4383
a(g3917
g935
g3
tp4384
a(g3917
g937
g3
tp4385
a(g3917
g939
g3
tp4386
a(g3917
g941
g3
tp4387
a(g3917
g943
g3
tp4388
a(g3917
g945
g3
tp4389
a(g3917
g947
g3
tp4390
a(g3917
g949
g3
tp4391
a(g3917
g951
g3
tp4392
a(g3917
g953
g3
tp4393
a(g3917
g955
g3
tp4394
a(g3917
g957
g3
tp4395
a(g3917
g959
g3
tp4396
a(g3917
g961
g3
tp4397
a(g3917
g963
g3
tp4398
a(g3917
g965
g3
tp4399
a(g3917
g967
g3
tp4400
a(g3917
g969
g3
tp4401
a(g3917
g971
g3
tp4402
a(g3917
g973
g3
tp4403
a(g3917
g975
g3
tp4404
a(g3917
g977
g3
tp4405
a(g3917
g979
g3
tp4406
a(g3917
g981
g3
tp4407
a(g3917
g983
g3
tp4408
a(g3917
g985
g3
tp4409
a(g3917
g987
g3
tp4410
a(g3917
g989
g3
tp4411
a(g3917
g991
g3
tp4412
a(g3917
g993
g3
tp4413
a(g3917
g995
g3
tp4414
a(g3917
g997
g3
tp4415
a(g3917
g999
g3
tp4416
a(g3917
g1001
g3
tp4417
a(g3917
g1003
g3
tp4418
a(g3917
g1005
g3
tp4419
a(g3917
g1007
g3
tp4420
a(g3917
g1009
g3
tp4421
a(g3917
g1011
g3
tp4422
a(g3917
g1013
g3
tp4423
a(g3917
g1015
g3
tp4424
a(g3917
g1017
g3
tp4425
a(g3917
g1019
g3
tp4426
a(g3917
g1021
g3
tp4427
a(g3917
g1023
g3
tp4428
a(g3917
g1025
g3
tp4429
a(g3917
g1027
g3
tp4430
a(g3917
g1029
g3
tp4431
a(g3917
g1031
g3
tp4432
a(g3917
g1033
g3
tp4433
a(g3917
g1035
g3
tp4434
a(g3917
g1037
g3
tp4435
a(g3917
g1039
g3
tp4436
a(g3917
g1041
g3
tp4437
a(g3917
g1043
g3
tp4438
a(g3917
g1045
g3
tp4439
a(g3917
g1047
g3
tp4440
a(g3917
g1049
g3
tp4441
a(g3917
g1051
g3
tp4442
a(g3917
g1053
g3
tp4443
a(g3917
g1055
g3
tp4444
a(g3917
g1057
g3
tp4445
a(g3917
g1059
g3
tp4446
a(g3917
g1061
g3
tp4447
a(g3917
g1063
g3
tp4448
a(g3917
g1065
g3
tp4449
a(g3917
g1067
g3
tp4450
a(g3917
g1069
g3
tp4451
a(g3917
g1071
g3
tp4452
a(g3917
g1073
g3
tp4453
a(g3917
g1075
g3
tp4454
a(g3917
g1077
g3
tp4455
a(g3917
g1079
g3
tp4456
a(g3917
g1081
g3
tp4457
a(g3917
g1083
g3
tp4458
a(g3917
g1085
g3
tp4459
a(g3917
g1087
g3
tp4460
a(g3917
g1089
g3
tp4461
a(g3917
g1091
g3
tp4462
a(g3917
g1093
g3
tp4463
a(g3917
g1095
g3
tp4464
a(g3917
g1097
g3
tp4465
a(g3917
g1099
g3
tp4466
a(g3917
g1101
g3
tp4467
a(g3917
g1103
g3
tp4468
a(g3917
g1105
g3
tp4469
a(g3917
g1107
g3
tp4470
a(g3917
g1109
g3
tp4471
a(g3917
g1111
g3
tp4472
a(g3917
g1113
g3
tp4473
a(g3917
g1115
g3
tp4474
a(g3917
g1117
g3
tp4475
a(g3917
g1119
g3
tp4476
a(g3917
g1121
g3
tp4477
a(g3917
g1123
g3
tp4478
a(g3917
g1125
g3
tp4479
a(g3917
g1127
g3
tp4480
a(g3917
g1129
g3
tp4481
a(g3917
g1131
g3
tp4482
a(g3917
g1133
g3
tp4483
a(g3917
g1135
g3
tp4484
a(g3917
g1137
g3
tp4485
a(g3917
g1139
g3
tp4486
a(g3917
g1141
g3
tp4487
a(g3917
g1143
g3
tp4488
a(g3917
g1145
g3
tp4489
a(g3917
g1147
g3
tp4490
a(g3917
g1149
g3
tp4491
a(g3917
g1151
g3
tp4492
a(g3917
g1153
g3
tp4493
a(g3917
g1155
g3
tp4494
a(g3917
g1157
g3
tp4495
a(g3917
g1159
g3
tp4496
a(g3917
g1161
g3
tp4497
a(g3917
g1163
g3
tp4498
a(g3917
g1165
g3
tp4499
a(g3917
g1167
g3
tp4500
a(g3917
g1169
g3
tp4501
a(g3917
g1171
g3
tp4502
a(g3917
g1173
g3
tp4503
a(g3917
g1175
g3
tp4504
a(g3917
g1177
g3
tp4505
a(g3917
g1179
g3
tp4506
a(g3917
g1181
g3
tp4507
a(g3917
g1183
g3
tp4508
a(g3917
g1185
g3
tp4509
a(g3917
g1187
g3
tp4510
a(g3917
g1189
g3
tp4511
a(g3917
g1191
g3
tp4512
a(g3917
g1193
g3
tp4513
a(g3917
g1195
g3
tp4514
a(g3917
g1197
g3
tp4515
a(g3917
g1199
g3
tp4516
a(g3917
g1201
g3
tp4517
a(g3917
g1203
g3
tp4518
a(g3917
g1205
g3
tp4519
a(g3917
g1207
g3
tp4520
a(g3917
g1209
g3
tp4521
a(g3917
g1211
g3
tp4522
a(g3917
g1213
g3
tp4523
a(g3917
g1215
g3
tp4524
a(g3917
g1217
g3
tp4525
a(g3917
g1219
g3
tp4526
a(g3917
g1221
g3
tp4527
a(g3917
g1223
g3
tp4528
a(g3917
g1225
g3
tp4529
a(g3917
g1227
g3
tp4530
a(g3917
g1229
g3
tp4531
a(g3917
g1231
g3
tp4532
a(g3917
g1233
g3
tp4533
a(g3917
g1235
g3
tp4534
a(g3917
g1237
g3
tp4535
a(g3917
g1239
g3
tp4536
a(g3917
g1241
g3
tp4537
a(g3917
g1243
g3
tp4538
a(g3917
g1245
g3
tp4539
a(g3917
g1247
g3
tp4540
a(g3917
g1249
g3
tp4541
a(g3917
g1251
g3
tp4542
a(g3917
g1253
g3
tp4543
a(g3917
g1255
g3
tp4544
a(g3917
g1257
g3
tp4545
a(g3917
g1259
g3
tp4546
a(g3917
g1261
g3
tp4547
a(g3917
g1263
g3
tp4548
a(g3917
g1265
g3
tp4549
a(g3917
g1267
g3
tp4550
a(g3917
g1269
g3
tp4551
a(g3917
g1271
g3
tp4552
a(g3917
g1273
g3
tp4553
a(g3917
g1275
g3
tp4554
a(g3917
g1277
g3
tp4555
a(g3917
g1279
g3
tp4556
a(g3917
g1281
g3
tp4557
a(g3917
g1283
g3
tp4558
a(g3917
g1285
g3
tp4559
a(g3917
g1287
g3
tp4560
a(g3917
g1289
g3
tp4561
a(g3917
g1291
g3
tp4562
a(g3917
g1293
g3
tp4563
a(g3917
g1295
g3
tp4564
a(g3917
g1297
g3
tp4565
a(g3917
g1299
g3
tp4566
a(g3917
g1301
g3
tp4567
a(g3917
g1303
g3
tp4568
a(g3917
g1305
g3
tp4569
a(g3917
g1307
g3
tp4570
a(g3917
g1309
g3
tp4571
a(g3917
g1311
g3
tp4572
a(g3917
g1313
g3
tp4573
a(g3917
g1315
g3
tp4574
a(g3917
g1317
g3
tp4575
a(g3917
g1319
g3
tp4576
a(g3917
g1321
g3
tp4577
a(g3917
g1323
g3
tp4578
a(g3917
g1325
g3
tp4579
a(g3917
g1327
g3
tp4580
a(g3917
g1329
g3
tp4581
a(g3917
g1331
g3
tp4582
a(g3917
g1333
g3
tp4583
a(g3917
g1335
g3
tp4584
a(g3917
g1337
g3
tp4585
a(g3917
g1339
g3
tp4586
a(g3917
g1341
g3
tp4587
a(g3917
g1343
g3
tp4588
a(g3917
g1345
g3
tp4589
a(g3917
g1347
g3
tp4590
a(g3917
g1349
g3
tp4591
a(g3917
g1351
g3
tp4592
a(g3917
g1353
g3
tp4593
a(g3917
g1355
g3
tp4594
a(g3917
g1357
g3
tp4595
a(g3917
g1359
g3
tp4596
a(g3917
g1361
g3
tp4597
a(g3917
g1363
g3
tp4598
a(g3917
g1365
g3
tp4599
a(g3917
g1367
g3
tp4600
a(g3917
g1369
g3
tp4601
a(g3917
g1371
g3
tp4602
a(g3917
g1373
g3
tp4603
a(g3917
g1375
g3
tp4604
a(g3917
g1377
g3
tp4605
a(g3917
g1379
g3
tp4606
a(g3917
g1381
g3
tp4607
a(g3917
g1383
g3
tp4608
a(g3917
g1385
g3
tp4609
a(g3917
g1387
g3
tp4610
a(g3917
g1389
g3
tp4611
a(g3917
g1391
g3
tp4612
a(g3917
g1393
g3
tp4613
a(g3917
g1395
g3
tp4614
a(g3917
g1397
g3
tp4615
a(g3917
g1399
g3
tp4616
a(g3917
g1401
g3
tp4617
a(g3917
g1403
g3
tp4618
a(g3917
g1405
g3
tp4619
a(g3917
g1407
g3
tp4620
a(g3917
g1409
g3
tp4621
a(g3917
g1411
g3
tp4622
a(g3917
g1413
g3
tp4623
a(g3917
g1415
g3
tp4624
a(g3917
g1417
g3
tp4625
a(g3917
g1419
g3
tp4626
a(g3917
g1421
g3
tp4627
a(g3917
g1423
g3
tp4628
a(g3917
g1425
g3
tp4629
a(g3917
g1427
g3
tp4630
a(g3917
g1429
g3
tp4631
a(g3917
g1431
g3
tp4632
a(g3917
g1433
g3
tp4633
a(g3917
g1435
g3
tp4634
a(g3917
g1437
g3
tp4635
a(g3917
g1439
g3
tp4636
a(g3917
g1441
g3
tp4637
a(g3917
g1443
g3
tp4638
a(g3917
g1445
g3
tp4639
a(g3917
g1447
g3
tp4640
a(g3917
g1449
g3
tp4641
a(g3917
g1451
g3
tp4642
a(g3917
g1453
g3
tp4643
a(g3917
g1455
g3
tp4644
a(g3917
g1457
g3
tp4645
a(g3917
g1459
g3
tp4646
a(g3917
g1461
g3
tp4647
a(g3917
g1463
g3
tp4648
a(g3917
g1465
g3
tp4649
a(g3917
g1467
g3
tp4650
a(g3917
g1469
g3
tp4651
a(g3917
g1471
g3
tp4652
a(g3917
g1473
g3
tp4653
a(g3917
g1475
g3
tp4654
a(g3917
g1477
g3
tp4655
a(g3917
g1479
g3
tp4656
a(g3917
g1481
g3
tp4657
a(g3917
g1483
g3
tp4658
a(g3917
g1485
g3
tp4659
a(g3917
g1487
g3
tp4660
a(g3917
g1489
g3
tp4661
a(g3917
g1491
g3
tp4662
a(g3917
g1493
g3
tp4663
a(g3917
g1495
g3
tp4664
a(g3917
g1497
g3
tp4665
a(g3917
g1499
g3
tp4666
a(g3917
g1501
g3
tp4667
a(g3917
g1503
g3
tp4668
a(g3917
g1505
g3
tp4669
a(g3917
g1507
g3
tp4670
a(g3917
g1509
g3
tp4671
a(g3917
g1511
g3
tp4672
a(g3917
g1513
g3
tp4673
a(g3917
g1515
g3
tp4674
a(g3917
g1517
g3
tp4675
a(g3917
g1519
g3
tp4676
a(g3917
g1521
g3
tp4677
a(g3917
g1523
g3
tp4678
a(g3917
g1525
g3
tp4679
a(g3917
g1527
g3
tp4680
a(g3917
g1529
g3
tp4681
a(g3917
g1531
g3
tp4682
a(g3917
g1533
g3
tp4683
a(g3917
g1535
g3
tp4684
a(g3917
g1537
g3
tp4685
a(g3917
g1539
g3
tp4686
a(g3917
g1541
g3
tp4687
a(g3917
g1543
g3
tp4688
a(g3917
g1545
g3
tp4689
a(g3917
g1547
g3
tp4690
a(g3917
g1549
g3
tp4691
a(g3917
g1551
g3
tp4692
a(g3917
g1553
g3
tp4693
a(g3917
g1555
g3
tp4694
a(g3917
g1557
g3
tp4695
a(g3917
g1559
g3
tp4696
a(g3917
g1561
g3
tp4697
a(g3917
g1563
g3
tp4698
a(g3917
g1565
g3
tp4699
a(g3917
g1567
g3
tp4700
a(g3917
g1569
g3
tp4701
a(g3917
g1571
g3
tp4702
a(g3917
g1573
g3
tp4703
a(g3917
g1575
g3
tp4704
a(g3917
g1577
g3
tp4705
a(g3917
g1579
g3
tp4706
a(g3917
g1581
g3
tp4707
a(g3917
g1583
g3
tp4708
a(g3917
g1585
g3
tp4709
a(g3917
g1587
g3
tp4710
a(g3917
g1589
g3
tp4711
a(g3917
g1591
g3
tp4712
a(g3917
g1593
g3
tp4713
a(g3917
g1595
g3
tp4714
a(g3917
g1597
g3
tp4715
a(g3917
g1599
g3
tp4716
a(g3917
g1601
g3
tp4717
a(g3917
g1603
g3
tp4718
a(g3917
g1605
g3
tp4719
a(g3917
g1607
g3
tp4720
a(g3917
g1609
g3
tp4721
a(g3917
g1611
g3
tp4722
a(g3917
g1613
g3
tp4723
a(g3917
g1615
g3
tp4724
a(g3917
g1617
g3
tp4725
a(g3917
g1619
g3
tp4726
a(g3917
g1621
g3
tp4727
a(g3917
g1623
g3
tp4728
a(g3917
g1625
g3
tp4729
a(g3917
g1627
g3
tp4730
a(g3917
g1629
g3
tp4731
a(g3917
g1631
g3
tp4732
a(g3917
g1633
g3
tp4733
a(g3917
g1635
g3
tp4734
a(g3917
g1637
g3
tp4735
a(g3917
g1639
g3
tp4736
a(g3917
g1641
g3
tp4737
a(g3917
g1643
g3
tp4738
a(g3917
g1645
g3
tp4739
a(g3917
g1647
g3
tp4740
a(g3917
g1649
g3
tp4741
a(g3917
g1651
g3
tp4742
a(g3917
g1653
g3
tp4743
a(g3917
g1655
g3
tp4744
a(g3917
g1657
g3
tp4745
a(g3917
g1659
g3
tp4746
a(g3917
g1661
g3
tp4747
a(g3917
g1663
g3
tp4748
a(g3917
g1665
g3
tp4749
a(g3917
g1667
g3
tp4750
a(g3917
g1669
g3
tp4751
a(g3917
g1671
g3
tp4752
a(g3917
g1673
g3
tp4753
a(g3917
g1675
g3
tp4754
a(g3917
g1677
g3
tp4755
a(g3917
g1679
g3
tp4756
a(g3917
g1681
g3
tp4757
a(g3917
g1683
g3
tp4758
a(g3917
g1685
g3
tp4759
a(g3917
g1687
g3
tp4760
a(g3917
g1689
g3
tp4761
a(g3917
g1691
g3
tp4762
a(g3917
g1693
g3
tp4763
a(g3917
g1695
g3
tp4764
a(g3917
g1697
g3
tp4765
a(g3917
g1699
g3
tp4766
a(g3917
g1701
g3
tp4767
a(g3917
g1703
g3
tp4768
a(g3917
g1705
g3
tp4769
a(g3917
g1707
g3
tp4770
a(g3917
g1709
g3
tp4771
a(g3917
g1711
g3
tp4772
a(g3917
g1713
g3
tp4773
a(g3917
g1715
g3
tp4774
a(g3917
g1717
g3
tp4775
a(g3917
g1719
g3
tp4776
a(g3917
g1721
g3
tp4777
a(g3917
g1723
g3
tp4778
a(g3917
g1725
g3
tp4779
a(g3917
g1727
g3
tp4780
a(g3917
g1729
g3
tp4781
a(g3917
g1731
g3
tp4782
a(g3917
g1733
g3
tp4783
a(g3917
g1735
g3
tp4784
a(g3917
g1737
g3
tp4785
a(g3917
g1739
g3
tp4786
a(g3917
g1741
g3
tp4787
a(g3917
g1743
g3
tp4788
a(g3917
g1745
g3
tp4789
a(g3917
g1747
g3
tp4790
a(g3917
g1749
g3
tp4791
a(g3917
g1751
g3
tp4792
a(g3917
g1753
g3
tp4793
a(g3917
g1755
g3
tp4794
a(g3917
g1757
g3
tp4795
a(g3917
g1759
g3
tp4796
a(g3917
g1761
g3
tp4797
a(g3917
g1763
g3
tp4798
a(g3917
g1765
g3
tp4799
a(g3917
g1767
g3
tp4800
a(g3917
g1769
g3
tp4801
a(g3917
g1771
g3
tp4802
a(g3917
g1773
g3
tp4803
a(g3917
g1775
g3
tp4804
a(g3917
g1777
g3
tp4805
a(g3917
g1779
g3
tp4806
a(g3917
g1781
g3
tp4807
a(g3917
g1783
g3
tp4808
a(g3917
g1785
g3
tp4809
a(g3917
g1787
g3
tp4810
a(g3917
g1789
g3
tp4811
a(g3917
g1791
g3
tp4812
a(g3917
g1793
g3
tp4813
a(g3917
g1795
g3
tp4814
a(g3917
g1797
g3
tp4815
a(g3917
g1799
g3
tp4816
a(g3917
g1801
g3
tp4817
a(g3917
g1803
g3
tp4818
a(g3917
g1805
g3
tp4819
a(g3917
g1807
g3
tp4820
a(g3917
g1809
g3
tp4821
a(g3917
g1811
g3
tp4822
a(g3917
g1813
g3
tp4823
a(g3917
g1815
g3
tp4824
a(g3917
g1817
g3
tp4825
a(g3917
g1819
g3
tp4826
a(g3917
g1821
g3
tp4827
a(g3917
g1823
g3
tp4828
a(g3917
g1825
g3
tp4829
a(g3917
g1827
g3
tp4830
a(g3917
g1829
g3
tp4831
a(g3917
g1831
g3
tp4832
a(g3917
g1833
g3
tp4833
a(g3917
g1835
g3
tp4834
a(g3917
g1837
g3
tp4835
a(g3917
g1839
g3
tp4836
a(g3917
g1841
g3
tp4837
a(g3917
g1843
g3
tp4838
a(g3917
g1845
g3
tp4839
a(g3917
g1847
g3
tp4840
a(g3917
g1849
g3
tp4841
a(g3917
g1851
g3
tp4842
a(g3917
g1853
g3
tp4843
a(g3917
g1855
g3
tp4844
a(g3917
g1857
g3
tp4845
a(g3917
g1859
g3
tp4846
a(g3917
g1861
g3
tp4847
a(g3917
g1863
g3
tp4848
a(g3917
g1865
g3
tp4849
a(g3917
g1867
g3
tp4850
a(g3917
g1869
g3
tp4851
a(g3917
g1871
g3
tp4852
a(g3917
g1873
g3
tp4853
a(g3917
g1875
g3
tp4854
a(g3917
g1877
g3
tp4855
a(g3917
g1879
g3
tp4856
a(g3917
g1881
g3
tp4857
a(g3917
g1883
g3
tp4858
a(g3917
g1885
g3
tp4859
a(g3917
g1887
g3
tp4860
a(g3917
g1889
g3
tp4861
a(g3917
g1891
g3
tp4862
a(g3917
g1893
g3
tp4863
a(g3917
g1895
g3
tp4864
a(g3917
g1897
g3
tp4865
a(g3917
g1899
g3
tp4866
a(g3917
g1901
g3
tp4867
a(g3917
g1903
g3
tp4868
a(g3917
g1905
g3
tp4869
a(g3917
g1907
g3
tp4870
a(g3917
g1909
g3
tp4871
a(g3917
g1911
g3
tp4872
a(g3917
g1913
g3
tp4873
a(g3917
g1915
g3
tp4874
a(g3917
g1917
g3
tp4875
a(g3917
g1919
g3
tp4876
a(g3917
g1921
g3
tp4877
a(g3917
g1923
g3
tp4878
a(g3917
g1925
g3
tp4879
a(g3917
g1927
g3
tp4880
a(g3917
g1929
g3
tp4881
a(g3917
g1931
g3
tp4882
a(g3917
g1933
g3
tp4883
a(g3917
g1935
g3
tp4884
a(g3917
g1937
g3
tp4885
a(g3917
g1939
g3
tp4886
a(g3917
g1941
g3
tp4887
a(g3917
g1943
g3
tp4888
a(g3917
g1945
g3
tp4889
a(g3917
g1947
g3
tp4890
a(g3917
g1949
g3
tp4891
a(g3917
g1951
g3
tp4892
a(g3917
g1953
g3
tp4893
a(g3917
g1955
g3
tp4894
a(g3917
g1957
g3
tp4895
a(S'HT29'
p4896
g2
g3
tp4897
a(g4896
g5
g3
tp4898
a(g4896
g7
g3
tp4899
a(g4896
g9
g3
tp4900
a(g4896
g11
g3
tp4901
a(g4896
g13
g3
tp4902
a(g4896
g15
g3
tp4903
a(g4896
g17
g3
tp4904
a(g4896
g19
g3
tp4905
a(g4896
g21
g3
tp4906
a(g4896
g23
g3
tp4907
a(g4896
g25
g3
tp4908
a(g4896
g27
g3
tp4909
a(g4896
g29
g3
tp4910
a(g4896
g31
g3
tp4911
a(g4896
g33
g3
tp4912
a(g4896
g35
g3
tp4913
a(g4896
g37
g3
tp4914
a(g4896
g39
g3
tp4915
a(g4896
g41
g3
tp4916
a(g4896
g43
g3
tp4917
a(g4896
g45
g3
tp4918
a(g4896
g47
g3
tp4919
a(g4896
g49
g3
tp4920
a(g4896
g51
g3
tp4921
a(g4896
g53
g3
tp4922
a(g4896
g55
g3
tp4923
a(g4896
g57
g3
tp4924
a(g4896
g59
g3
tp4925
a(g4896
g61
g3
tp4926
a(g4896
g63
g3
tp4927
a(g4896
g65
g3
tp4928
a(g4896
g67
g3
tp4929
a(g4896
g69
g3
tp4930
a(g4896
g71
g3
tp4931
a(g4896
g73
g3
tp4932
a(g4896
g75
g3
tp4933
a(g4896
g77
g3
tp4934
a(g4896
g79
g3
tp4935
a(g4896
g81
g3
tp4936
a(g4896
g83
g3
tp4937
a(g4896
g85
g3
tp4938
a(g4896
g87
g3
tp4939
a(g4896
g89
g3
tp4940
a(g4896
g91
g3
tp4941
a(g4896
g93
g3
tp4942
a(g4896
g95
g3
tp4943
a(g4896
g97
g3
tp4944
a(g4896
g99
g3
tp4945
a(g4896
g101
g3
tp4946
a(g4896
g103
g3
tp4947
a(g4896
g105
g3
tp4948
a(g4896
g107
g3
tp4949
a(g4896
g109
g3
tp4950
a(g4896
g111
g3
tp4951
a(g4896
g113
g3
tp4952
a(g4896
g115
g3
tp4953
a(g4896
g117
g3
tp4954
a(g4896
g119
g3
tp4955
a(g4896
g121
g3
tp4956
a(g4896
g123
g3
tp4957
a(g4896
g125
g3
tp4958
a(g4896
g127
g3
tp4959
a(g4896
g129
g3
tp4960
a(g4896
g131
g3
tp4961
a(g4896
g133
g3
tp4962
a(g4896
g135
g3
tp4963
a(g4896
g137
g3
tp4964
a(g4896
g139
g3
tp4965
a(g4896
g141
g3
tp4966
a(g4896
g143
g3
tp4967
a(g4896
g145
g3
tp4968
a(g4896
g147
g3
tp4969
a(g4896
g149
g3
tp4970
a(g4896
g151
g3
tp4971
a(g4896
g153
g3
tp4972
a(g4896
g155
g3
tp4973
a(g4896
g157
g3
tp4974
a(g4896
g159
g3
tp4975
a(g4896
g161
g3
tp4976
a(g4896
g163
g3
tp4977
a(g4896
g165
g3
tp4978
a(g4896
g167
g3
tp4979
a(g4896
g169
g3
tp4980
a(g4896
g171
g3
tp4981
a(g4896
g173
g3
tp4982
a(g4896
g175
g3
tp4983
a(g4896
g177
g3
tp4984
a(g4896
g179
g3
tp4985
a(g4896
g181
g3
tp4986
a(g4896
g183
g3
tp4987
a(g4896
g185
g3
tp4988
a(g4896
g187
g3
tp4989
a(g4896
g189
g3
tp4990
a(g4896
g191
g3
tp4991
a(g4896
g193
g3
tp4992
a(g4896
g195
g3
tp4993
a(g4896
g197
g3
tp4994
a(g4896
g199
g3
tp4995
a(g4896
g201
g3
tp4996
a(g4896
g203
g3
tp4997
a(g4896
g205
g3
tp4998
a(g4896
g207
g3
tp4999
a(g4896
g209
g3
tp5000
a(g4896
g211
g3
tp5001
a(g4896
g213
g3
tp5002
a(g4896
g215
g3
tp5003
a(g4896
g217
g3
tp5004
a(g4896
g219
g3
tp5005
a(g4896
g221
g3
tp5006
a(g4896
g223
g3
tp5007
a(g4896
g225
g3
tp5008
a(g4896
g227
g3
tp5009
a(g4896
g229
g3
tp5010
a(g4896
g231
g3
tp5011
a(g4896
g233
g3
tp5012
a(g4896
g235
g3
tp5013
a(g4896
g237
g3
tp5014
a(g4896
g239
g3
tp5015
a(g4896
g241
g3
tp5016
a(g4896
g243
g3
tp5017
a(g4896
g245
g3
tp5018
a(g4896
g247
g3
tp5019
a(g4896
g249
g3
tp5020
a(g4896
g251
g3
tp5021
a(g4896
g253
g3
tp5022
a(g4896
g255
g3
tp5023
a(g4896
g257
g3
tp5024
a(g4896
g259
g3
tp5025
a(g4896
g261
g3
tp5026
a(g4896
g263
g3
tp5027
a(g4896
g265
g3
tp5028
a(g4896
g267
g3
tp5029
a(g4896
g269
g3
tp5030
a(g4896
g271
g3
tp5031
a(g4896
g273
g3
tp5032
a(g4896
g275
g3
tp5033
a(g4896
g277
g3
tp5034
a(g4896
g279
g3
tp5035
a(g4896
g281
g3
tp5036
a(g4896
g283
g3
tp5037
a(g4896
g285
g3
tp5038
a(g4896
g287
g3
tp5039
a(g4896
g289
g3
tp5040
a(g4896
g291
g3
tp5041
a(g4896
g293
g3
tp5042
a(g4896
g295
g3
tp5043
a(g4896
g297
g3
tp5044
a(g4896
g299
g3
tp5045
a(g4896
g301
g3
tp5046
a(g4896
g303
g3
tp5047
a(g4896
g305
g3
tp5048
a(g4896
g307
g3
tp5049
a(g4896
g309
g3
tp5050
a(g4896
g311
g3
tp5051
a(g4896
g313
g3
tp5052
a(g4896
g315
g3
tp5053
a(g4896
g317
g3
tp5054
a(g4896
g319
g3
tp5055
a(g4896
g321
g3
tp5056
a(g4896
g323
g3
tp5057
a(g4896
g325
g3
tp5058
a(g4896
g327
g3
tp5059
a(g4896
g329
g3
tp5060
a(g4896
g331
g3
tp5061
a(g4896
g333
g3
tp5062
a(g4896
g335
g3
tp5063
a(g4896
g337
g3
tp5064
a(g4896
g339
g3
tp5065
a(g4896
g341
g3
tp5066
a(g4896
g343
g3
tp5067
a(g4896
g345
g3
tp5068
a(g4896
g347
g3
tp5069
a(g4896
g349
g3
tp5070
a(g4896
g351
g3
tp5071
a(g4896
g353
g3
tp5072
a(g4896
g355
g3
tp5073
a(g4896
g357
g3
tp5074
a(g4896
g359
g3
tp5075
a(g4896
g361
g3
tp5076
a(g4896
g363
g3
tp5077
a(g4896
g365
g3
tp5078
a(g4896
g367
g3
tp5079
a(g4896
g369
g3
tp5080
a(g4896
g371
g3
tp5081
a(g4896
g373
g3
tp5082
a(g4896
g375
g3
tp5083
a(g4896
g377
g3
tp5084
a(g4896
g379
g3
tp5085
a(g4896
g381
g3
tp5086
a(g4896
g383
g3
tp5087
a(g4896
g385
g3
tp5088
a(g4896
g387
g3
tp5089
a(g4896
g389
g3
tp5090
a(g4896
g391
g3
tp5091
a(g4896
g393
g3
tp5092
a(g4896
g395
g3
tp5093
a(g4896
g397
g3
tp5094
a(g4896
g399
g3
tp5095
a(g4896
g401
g3
tp5096
a(g4896
g403
g3
tp5097
a(g4896
g405
g3
tp5098
a(g4896
g407
g3
tp5099
a(g4896
g409
g3
tp5100
a(g4896
g411
g3
tp5101
a(g4896
g413
g3
tp5102
a(g4896
g415
g3
tp5103
a(g4896
g417
g3
tp5104
a(g4896
g419
g3
tp5105
a(g4896
g421
g3
tp5106
a(g4896
g423
g3
tp5107
a(g4896
g425
g3
tp5108
a(g4896
g427
g3
tp5109
a(g4896
g429
g3
tp5110
a(g4896
g431
g3
tp5111
a(g4896
g433
g3
tp5112
a(g4896
g435
g3
tp5113
a(g4896
g437
g3
tp5114
a(g4896
g439
g3
tp5115
a(g4896
g441
g3
tp5116
a(g4896
g443
g3
tp5117
a(g4896
g445
g3
tp5118
a(g4896
g447
g3
tp5119
a(g4896
g449
g3
tp5120
a(g4896
g451
g3
tp5121
a(g4896
g453
g3
tp5122
a(g4896
g455
g3
tp5123
a(g4896
g457
g3
tp5124
a(g4896
g459
g3
tp5125
a(g4896
g461
g3
tp5126
a(g4896
g463
g3
tp5127
a(g4896
g465
g3
tp5128
a(g4896
g467
g3
tp5129
a(g4896
g469
g3
tp5130
a(g4896
g471
g3
tp5131
a(g4896
g473
g3
tp5132
a(g4896
g475
g3
tp5133
a(g4896
g477
g3
tp5134
a(g4896
g479
g3
tp5135
a(g4896
g481
g3
tp5136
a(g4896
g483
g3
tp5137
a(g4896
g485
g3
tp5138
a(g4896
g487
g3
tp5139
a(g4896
g489
g3
tp5140
a(g4896
g491
g3
tp5141
a(g4896
g493
g3
tp5142
a(g4896
g495
g3
tp5143
a(g4896
g497
g3
tp5144
a(g4896
g499
g3
tp5145
a(g4896
g501
g3
tp5146
a(g4896
g503
g3
tp5147
a(g4896
g505
g3
tp5148
a(g4896
g507
g3
tp5149
a(g4896
g509
g3
tp5150
a(g4896
g511
g3
tp5151
a(g4896
g513
g3
tp5152
a(g4896
g515
g3
tp5153
a(g4896
g517
g3
tp5154
a(g4896
g519
g3
tp5155
a(g4896
g521
g3
tp5156
a(g4896
g523
g3
tp5157
a(g4896
g525
g3
tp5158
a(g4896
g527
g3
tp5159
a(g4896
g529
g3
tp5160
a(g4896
g531
g3
tp5161
a(g4896
g533
g3
tp5162
a(g4896
g535
g3
tp5163
a(g4896
g537
g3
tp5164
a(g4896
g539
g3
tp5165
a(g4896
g541
g3
tp5166
a(g4896
g543
g3
tp5167
a(g4896
g545
g3
tp5168
a(g4896
g547
g3
tp5169
a(g4896
g549
g3
tp5170
a(g4896
g551
g3
tp5171
a(g4896
g553
g3
tp5172
a(g4896
g555
g3
tp5173
a(g4896
g557
g3
tp5174
a(g4896
g559
g3
tp5175
a(g4896
g561
g3
tp5176
a(g4896
g563
g3
tp5177
a(g4896
g565
g3
tp5178
a(g4896
g567
g3
tp5179
a(g4896
g569
g3
tp5180
a(g4896
g571
g3
tp5181
a(g4896
g573
g3
tp5182
a(g4896
g575
g3
tp5183
a(g4896
g577
g3
tp5184
a(g4896
g579
g3
tp5185
a(g4896
g581
g3
tp5186
a(g4896
g583
g3
tp5187
a(g4896
g585
g3
tp5188
a(g4896
g587
g3
tp5189
a(g4896
g589
g3
tp5190
a(g4896
g591
g3
tp5191
a(g4896
g593
g3
tp5192
a(g4896
g595
g3
tp5193
a(g4896
g597
g3
tp5194
a(g4896
g599
g3
tp5195
a(g4896
g601
g3
tp5196
a(g4896
g603
g3
tp5197
a(g4896
g605
g3
tp5198
a(g4896
g607
g3
tp5199
a(g4896
g609
g3
tp5200
a(g4896
g611
g3
tp5201
a(g4896
g613
g3
tp5202
a(g4896
g615
g3
tp5203
a(g4896
g617
g3
tp5204
a(g4896
g619
g3
tp5205
a(g4896
g621
g3
tp5206
a(g4896
g623
g3
tp5207
a(g4896
g625
g3
tp5208
a(g4896
g627
g3
tp5209
a(g4896
g629
g3
tp5210
a(g4896
g631
g3
tp5211
a(g4896
g633
g3
tp5212
a(g4896
g635
g3
tp5213
a(g4896
g637
g3
tp5214
a(g4896
g639
g3
tp5215
a(g4896
g641
g3
tp5216
a(g4896
g643
g3
tp5217
a(g4896
g645
g3
tp5218
a(g4896
g647
g3
tp5219
a(g4896
g649
g3
tp5220
a(g4896
g651
g3
tp5221
a(g4896
g653
g3
tp5222
a(g4896
g655
g3
tp5223
a(g4896
g657
g3
tp5224
a(g4896
g659
g3
tp5225
a(g4896
g661
g3
tp5226
a(g4896
g663
g3
tp5227
a(g4896
g665
g3
tp5228
a(g4896
g667
g3
tp5229
a(g4896
g669
g3
tp5230
a(g4896
g671
g3
tp5231
a(g4896
g673
g3
tp5232
a(g4896
g675
g3
tp5233
a(g4896
g677
g3
tp5234
a(g4896
g679
g3
tp5235
a(g4896
g681
g3
tp5236
a(g4896
g683
g3
tp5237
a(g4896
g685
g3
tp5238
a(g4896
g687
g3
tp5239
a(g4896
g689
g3
tp5240
a(g4896
g691
g3
tp5241
a(g4896
g693
g3
tp5242
a(g4896
g695
g3
tp5243
a(g4896
g697
g3
tp5244
a(g4896
g699
g3
tp5245
a(g4896
g701
g3
tp5246
a(g4896
g703
g3
tp5247
a(g4896
g705
g3
tp5248
a(g4896
g707
g3
tp5249
a(g4896
g709
g3
tp5250
a(g4896
g711
g3
tp5251
a(g4896
g713
g3
tp5252
a(g4896
g715
g3
tp5253
a(g4896
g717
g3
tp5254
a(g4896
g719
g3
tp5255
a(g4896
g721
g3
tp5256
a(g4896
g723
g3
tp5257
a(g4896
g725
g3
tp5258
a(g4896
g727
g3
tp5259
a(g4896
g729
g3
tp5260
a(g4896
g731
g3
tp5261
a(g4896
g733
g3
tp5262
a(g4896
g735
g3
tp5263
a(g4896
g737
g3
tp5264
a(g4896
g739
g3
tp5265
a(g4896
g741
g3
tp5266
a(g4896
g743
g3
tp5267
a(g4896
g745
g3
tp5268
a(g4896
g747
g3
tp5269
a(g4896
g749
g3
tp5270
a(g4896
g751
g3
tp5271
a(g4896
g753
g3
tp5272
a(g4896
g755
g3
tp5273
a(g4896
g757
g3
tp5274
a(g4896
g759
g3
tp5275
a(g4896
g761
g3
tp5276
a(g4896
g763
g3
tp5277
a(g4896
g765
g3
tp5278
a(g4896
g767
g3
tp5279
a(g4896
g769
g3
tp5280
a(g4896
g771
g3
tp5281
a(g4896
g773
g3
tp5282
a(g4896
g775
g3
tp5283
a(g4896
g777
g3
tp5284
a(g4896
g779
g3
tp5285
a(g4896
g781
g3
tp5286
a(g4896
g783
g3
tp5287
a(g4896
g785
g3
tp5288
a(g4896
g787
g3
tp5289
a(g4896
g789
g3
tp5290
a(g4896
g791
g3
tp5291
a(g4896
g793
g3
tp5292
a(g4896
g795
g3
tp5293
a(g4896
g797
g3
tp5294
a(g4896
g799
g3
tp5295
a(g4896
g801
g3
tp5296
a(g4896
g803
g3
tp5297
a(g4896
g805
g3
tp5298
a(g4896
g807
g3
tp5299
a(g4896
g809
g3
tp5300
a(g4896
g811
g3
tp5301
a(g4896
g813
g3
tp5302
a(g4896
g815
g3
tp5303
a(g4896
g817
g3
tp5304
a(g4896
g819
g3
tp5305
a(g4896
g821
g3
tp5306
a(g4896
g823
g3
tp5307
a(g4896
g825
g3
tp5308
a(g4896
g827
g3
tp5309
a(g4896
g829
g3
tp5310
a(g4896
g831
g3
tp5311
a(g4896
g833
g3
tp5312
a(g4896
g835
g3
tp5313
a(g4896
g837
g3
tp5314
a(g4896
g839
g3
tp5315
a(g4896
g841
g3
tp5316
a(g4896
g843
g3
tp5317
a(g4896
g845
g3
tp5318
a(g4896
g847
g3
tp5319
a(g4896
g849
g3
tp5320
a(g4896
g851
g3
tp5321
a(g4896
g853
g3
tp5322
a(g4896
g855
g3
tp5323
a(g4896
g857
g3
tp5324
a(g4896
g859
g3
tp5325
a(g4896
g861
g3
tp5326
a(g4896
g863
g3
tp5327
a(g4896
g865
g3
tp5328
a(g4896
g867
g3
tp5329
a(g4896
g869
g3
tp5330
a(g4896
g871
g3
tp5331
a(g4896
g873
g3
tp5332
a(g4896
g875
g3
tp5333
a(g4896
g877
g3
tp5334
a(g4896
g879
g3
tp5335
a(g4896
g881
g3
tp5336
a(g4896
g883
g3
tp5337
a(g4896
g885
g3
tp5338
a(g4896
g887
g3
tp5339
a(g4896
g889
g3
tp5340
a(g4896
g891
g3
tp5341
a(g4896
g893
g3
tp5342
a(g4896
g895
g3
tp5343
a(g4896
g897
g3
tp5344
a(g4896
g899
g3
tp5345
a(g4896
g901
g3
tp5346
a(g4896
g903
g3
tp5347
a(g4896
g905
g3
tp5348
a(g4896
g907
g3
tp5349
a(g4896
g909
g3
tp5350
a(g4896
g911
g3
tp5351
a(g4896
g913
g3
tp5352
a(g4896
g915
g3
tp5353
a(g4896
g917
g3
tp5354
a(g4896
g919
g3
tp5355
a(g4896
g921
g3
tp5356
a(g4896
g923
g3
tp5357
a(g4896
g925
g3
tp5358
a(g4896
g927
g3
tp5359
a(g4896
g929
g3
tp5360
a(g4896
g931
g3
tp5361
a(g4896
g933
g3
tp5362
a(g4896
g935
g3
tp5363
a(g4896
g937
g3
tp5364
a(g4896
g939
g3
tp5365
a(g4896
g941
g3
tp5366
a(g4896
g943
g3
tp5367
a(g4896
g945
g3
tp5368
a(g4896
g947
g3
tp5369
a(g4896
g949
g3
tp5370
a(g4896
g951
g3
tp5371
a(g4896
g953
g3
tp5372
a(g4896
g955
g3
tp5373
a(g4896
g957
g3
tp5374
a(g4896
g959
g3
tp5375
a(g4896
g961
g3
tp5376
a(g4896
g963
g3
tp5377
a(g4896
g965
g3
tp5378
a(g4896
g967
g3
tp5379
a(g4896
g969
g3
tp5380
a(g4896
g971
g3
tp5381
a(g4896
g973
g3
tp5382
a(g4896
g975
g3
tp5383
a(g4896
g977
g3
tp5384
a(g4896
g979
g3
tp5385
a(g4896
g981
g3
tp5386
a(g4896
g983
g3
tp5387
a(g4896
g985
g3
tp5388
a(g4896
g987
g3
tp5389
a(g4896
g989
g3
tp5390
a(g4896
g991
g3
tp5391
a(g4896
g993
g3
tp5392
a(g4896
g995
g3
tp5393
a(g4896
g997
g3
tp5394
a(g4896
g999
g3
tp5395
a(g4896
g1001
g3
tp5396
a(g4896
g1003
g3
tp5397
a(g4896
g1005
g3
tp5398
a(g4896
g1007
g3
tp5399
a(g4896
g1009
g3
tp5400
a(g4896
g1011
g3
tp5401
a(g4896
g1013
g3
tp5402
a(g4896
g1015
g3
tp5403
a(g4896
g1017
g3
tp5404
a(g4896
g1019
g3
tp5405
a(g4896
g1021
g3
tp5406
a(g4896
g1023
g3
tp5407
a(g4896
g1025
g3
tp5408
a(g4896
g1027
g3
tp5409
a(g4896
g1029
g3
tp5410
a(g4896
g1031
g3
tp5411
a(g4896
g1033
g3
tp5412
a(g4896
g1035
g3
tp5413
a(g4896
g1037
g3
tp5414
a(g4896
g1039
g3
tp5415
a(g4896
g1041
g3
tp5416
a(g4896
g1043
g3
tp5417
a(g4896
g1045
g3
tp5418
a(g4896
g1047
g3
tp5419
a(g4896
g1049
g3
tp5420
a(g4896
g1051
g3
tp5421
a(g4896
g1053
g3
tp5422
a(g4896
g1055
g3
tp5423
a(g4896
g1057
g3
tp5424
a(g4896
g1059
g3
tp5425
a(g4896
g1061
g3
tp5426
a(g4896
g1063
g3
tp5427
a(g4896
g1065
g3
tp5428
a(g4896
g1067
g3
tp5429
a(g4896
g1069
g3
tp5430
a(g4896
g1071
g3
tp5431
a(g4896
g1073
g3
tp5432
a(g4896
g1075
g3
tp5433
a(g4896
g1077
g3
tp5434
a(g4896
g1079
g3
tp5435
a(g4896
g1081
g3
tp5436
a(g4896
g1083
g3
tp5437
a(g4896
g1085
g3
tp5438
a(g4896
g1087
g3
tp5439
a(g4896
g1089
g3
tp5440
a(g4896
g1091
g3
tp5441
a(g4896
g1093
g3
tp5442
a(g4896
g1095
g3
tp5443
a(g4896
g1097
g3
tp5444
a(g4896
g1099
g3
tp5445
a(g4896
g1101
g3
tp5446
a(g4896
g1103
g3
tp5447
a(g4896
g1105
g3
tp5448
a(g4896
g1107
g3
tp5449
a(g4896
g1109
g3
tp5450
a(g4896
g1111
g3
tp5451
a(g4896
g1113
g3
tp5452
a(g4896
g1115
g3
tp5453
a(g4896
g1117
g3
tp5454
a(g4896
g1119
g3
tp5455
a(g4896
g1121
g3
tp5456
a(g4896
g1123
g3
tp5457
a(g4896
g1125
g3
tp5458
a(g4896
g1127
g3
tp5459
a(g4896
g1129
g3
tp5460
a(g4896
g1131
g3
tp5461
a(g4896
g1133
g3
tp5462
a(g4896
g1135
g3
tp5463
a(g4896
g1137
g3
tp5464
a(g4896
g1139
g3
tp5465
a(g4896
g1141
g3
tp5466
a(g4896
g1143
g3
tp5467
a(g4896
g1145
g3
tp5468
a(g4896
g1147
g3
tp5469
a(g4896
g1149
g3
tp5470
a(g4896
g1151
g3
tp5471
a(g4896
g1153
g3
tp5472
a(g4896
g1155
g3
tp5473
a(g4896
g1157
g3
tp5474
a(g4896
g1159
g3
tp5475
a(g4896
g1161
g3
tp5476
a(g4896
g1163
g3
tp5477
a(g4896
g1165
g3
tp5478
a(g4896
g1167
g3
tp5479
a(g4896
g1169
g3
tp5480
a(g4896
g1171
g3
tp5481
a(g4896
g1173
g3
tp5482
a(g4896
g1175
g3
tp5483
a(g4896
g1177
g3
tp5484
a(g4896
g1179
g3
tp5485
a(g4896
g1181
g3
tp5486
a(g4896
g1183
g3
tp5487
a(g4896
g1185
g3
tp5488
a(g4896
g1187
g3
tp5489
a(g4896
g1189
g3
tp5490
a(g4896
g1191
g3
tp5491
a(g4896
g1193
g3
tp5492
a(g4896
g1195
g3
tp5493
a(g4896
g1197
g3
tp5494
a(g4896
g1199
g3
tp5495
a(g4896
g1201
g3
tp5496
a(g4896
g1203
g3
tp5497
a(g4896
g1205
g3
tp5498
a(g4896
g1207
g3
tp5499
a(g4896
g1209
g3
tp5500
a(g4896
g1211
g3
tp5501
a(g4896
g1213
g3
tp5502
a(g4896
g1215
g3
tp5503
a(g4896
g1217
g3
tp5504
a(g4896
g1219
g3
tp5505
a(g4896
g1221
g3
tp5506
a(g4896
g1223
g3
tp5507
a(g4896
g1225
g3
tp5508
a(g4896
g1227
g3
tp5509
a(g4896
g1229
g3
tp5510
a(g4896
g1231
g3
tp5511
a(g4896
g1233
g3
tp5512
a(g4896
g1235
g3
tp5513
a(g4896
g1237
g3
tp5514
a(g4896
g1239
g3
tp5515
a(g4896
g1241
g3
tp5516
a(g4896
g1243
g3
tp5517
a(g4896
g1245
g3
tp5518
a(g4896
g1247
g3
tp5519
a(g4896
g1249
g3
tp5520
a(g4896
g1251
g3
tp5521
a(g4896
g1253
g3
tp5522
a(g4896
g1255
g3
tp5523
a(g4896
g1257
g3
tp5524
a(g4896
g1259
g3
tp5525
a(g4896
g1261
g3
tp5526
a(g4896
g1263
g3
tp5527
a(g4896
g1265
g3
tp5528
a(g4896
g1267
g3
tp5529
a(g4896
g1269
g3
tp5530
a(g4896
g1271
g3
tp5531
a(g4896
g1273
g3
tp5532
a(g4896
g1275
g3
tp5533
a(g4896
g1277
g3
tp5534
a(g4896
g1279
g3
tp5535
a(g4896
g1281
g3
tp5536
a(g4896
g1283
g3
tp5537
a(g4896
g1285
g3
tp5538
a(g4896
g1287
g3
tp5539
a(g4896
g1289
g3
tp5540
a(g4896
g1291
g3
tp5541
a(g4896
g1293
g3
tp5542
a(g4896
g1295
g3
tp5543
a(g4896
g1297
g3
tp5544
a(g4896
g1299
g3
tp5545
a(g4896
g1301
g3
tp5546
a(g4896
g1303
g3
tp5547
a(g4896
g1305
g3
tp5548
a(g4896
g1307
g3
tp5549
a(g4896
g1309
g3
tp5550
a(g4896
g1311
g3
tp5551
a(g4896
g1313
g3
tp5552
a(g4896
g1315
g3
tp5553
a(g4896
g1317
g3
tp5554
a(g4896
g1319
g3
tp5555
a(g4896
g1321
g3
tp5556
a(g4896
g1323
g3
tp5557
a(g4896
g1325
g3
tp5558
a(g4896
g1327
g3
tp5559
a(g4896
g1329
g3
tp5560
a(g4896
g1331
g3
tp5561
a(g4896
g1333
g3
tp5562
a(g4896
g1335
g3
tp5563
a(g4896
g1337
g3
tp5564
a(g4896
g1339
g3
tp5565
a(g4896
g1341
g3
tp5566
a(g4896
g1343
g3
tp5567
a(g4896
g1345
g3
tp5568
a(g4896
g1347
g3
tp5569
a(g4896
g1349
g3
tp5570
a(g4896
g1351
g3
tp5571
a(g4896
g1353
g3
tp5572
a(g4896
g1355
g3
tp5573
a(g4896
g1357
g3
tp5574
a(g4896
g1359
g3
tp5575
a(g4896
g1361
g3
tp5576
a(g4896
g1363
g3
tp5577
a(g4896
g1365
g3
tp5578
a(g4896
g1367
g3
tp5579
a(g4896
g1369
g3
tp5580
a(g4896
g1371
g3
tp5581
a(g4896
g1373
g3
tp5582
a(g4896
g1375
g3
tp5583
a(g4896
g1377
g3
tp5584
a(g4896
g1379
g3
tp5585
a(g4896
g1381
g3
tp5586
a(g4896
g1383
g3
tp5587
a(g4896
g1385
g3
tp5588
a(g4896
g1387
g3
tp5589
a(g4896
g1389
g3
tp5590
a(g4896
g1391
g3
tp5591
a(g4896
g1393
g3
tp5592
a(g4896
g1395
g3
tp5593
a(g4896
g1397
g3
tp5594
a(g4896
g1399
g3
tp5595
a(g4896
g1401
g3
tp5596
a(g4896
g1403
g3
tp5597
a(g4896
g1405
g3
tp5598
a(g4896
g1407
g3
tp5599
a(g4896
g1409
g3
tp5600
a(g4896
g1411
g3
tp5601
a(g4896
g1413
g3
tp5602
a(g4896
g1415
g3
tp5603
a(g4896
g1417
g3
tp5604
a(g4896
g1419
g3
tp5605
a(g4896
g1421
g3
tp5606
a(g4896
g1423
g3
tp5607
a(g4896
g1425
g3
tp5608
a(g4896
g1427
g3
tp5609
a(g4896
g1429
g3
tp5610
a(g4896
g1431
g3
tp5611
a(g4896
g1433
g3
tp5612
a(g4896
g1435
g3
tp5613
a(g4896
g1437
g3
tp5614
a(g4896
g1439
g3
tp5615
a(g4896
g1441
g3
tp5616
a(g4896
g1443
g3
tp5617
a(g4896
g1445
g3
tp5618
a(g4896
g1447
g3
tp5619
a(g4896
g1449
g3
tp5620
a(g4896
g1451
g3
tp5621
a(g4896
g1453
g3
tp5622
a(g4896
g1455
g3
tp5623
a(g4896
g1457
g3
tp5624
a(g4896
g1459
g3
tp5625
a(g4896
g1461
g3
tp5626
a(g4896
g1463
g3
tp5627
a(g4896
g1465
g3
tp5628
a(g4896
g1467
g3
tp5629
a(g4896
g1469
g3
tp5630
a(g4896
g1471
g3
tp5631
a(g4896
g1473
g3
tp5632
a(g4896
g1475
g3
tp5633
a(g4896
g1477
g3
tp5634
a(g4896
g1479
g3
tp5635
a(g4896
g1481
g3
tp5636
a(g4896
g1483
g3
tp5637
a(g4896
g1485
g3
tp5638
a(g4896
g1487
g3
tp5639
a(g4896
g1489
g3
tp5640
a(g4896
g1491
g3
tp5641
a(g4896
g1493
g3
tp5642
a(g4896
g1495
g3
tp5643
a(g4896
g1497
g3
tp5644
a(g4896
g1499
g3
tp5645
a(g4896
g1501
g3
tp5646
a(g4896
g1503
g3
tp5647
a(g4896
g1505
g3
tp5648
a(g4896
g1507
g3
tp5649
a(g4896
g1509
g3
tp5650
a(g4896
g1511
g3
tp5651
a(g4896
g1513
g3
tp5652
a(g4896
g1515
g3
tp5653
a(g4896
g1517
g3
tp5654
a(g4896
g1519
g3
tp5655
a(g4896
g1521
g3
tp5656
a(g4896
g1523
g3
tp5657
a(g4896
g1525
g3
tp5658
a(g4896
g1527
g3
tp5659
a(g4896
g1529
g3
tp5660
a(g4896
g1531
g3
tp5661
a(g4896
g1533
g3
tp5662
a(g4896
g1535
g3
tp5663
a(g4896
g1537
g3
tp5664
a(g4896
g1539
g3
tp5665
a(g4896
g1541
g3
tp5666
a(g4896
g1543
g3
tp5667
a(g4896
g1545
g3
tp5668
a(g4896
g1547
g3
tp5669
a(g4896
g1549
g3
tp5670
a(g4896
g1551
g3
tp5671
a(g4896
g1553
g3
tp5672
a(g4896
g1555
g3
tp5673
a(g4896
g1557
g3
tp5674
a(g4896
g1559
g3
tp5675
a(g4896
g1561
g3
tp5676
a(g4896
g1563
g3
tp5677
a(g4896
g1565
g3
tp5678
a(g4896
g1567
g3
tp5679
a(g4896
g1569
g3
tp5680
a(g4896
g1571
g3
tp5681
a(g4896
g1573
g3
tp5682
a(g4896
g1575
g3
tp5683
a(g4896
g1577
g3
tp5684
a(g4896
g1579
g3
tp5685
a(g4896
g1581
g3
tp5686
a(g4896
g1583
g3
tp5687
a(g4896
g1585
g3
tp5688
a(g4896
g1587
g3
tp5689
a(g4896
g1589
g3
tp5690
a(g4896
g1591
g3
tp5691
a(g4896
g1593
g3
tp5692
a(g4896
g1595
g3
tp5693
a(g4896
g1597
g3
tp5694
a(g4896
g1599
g3
tp5695
a(g4896
g1601
g3
tp5696
a(g4896
g1603
g3
tp5697
a(g4896
g1605
g3
tp5698
a(g4896
g1607
g3
tp5699
a(g4896
g1609
g3
tp5700
a(g4896
g1611
g3
tp5701
a(g4896
g1613
g3
tp5702
a(g4896
g1615
g3
tp5703
a(g4896
g1617
g3
tp5704
a(g4896
g1619
g3
tp5705
a(g4896
g1621
g3
tp5706
a(g4896
g1623
g3
tp5707
a(g4896
g1625
g3
tp5708
a(g4896
g1627
g3
tp5709
a(g4896
g1629
g3
tp5710
a(g4896
g1631
g3
tp5711
a(g4896
g1633
g3
tp5712
a(g4896
g1635
g3
tp5713
a(g4896
g1637
g3
tp5714
a(g4896
g1639
g3
tp5715
a(g4896
g1641
g3
tp5716
a(g4896
g1643
g3
tp5717
a(g4896
g1645
g3
tp5718
a(g4896
g1647
g3
tp5719
a(g4896
g1649
g3
tp5720
a(g4896
g1651
g3
tp5721
a(g4896
g1653
g3
tp5722
a(g4896
g1655
g3
tp5723
a(g4896
g1657
g3
tp5724
a(g4896
g1659
g3
tp5725
a(g4896
g1661
g3
tp5726
a(g4896
g1663
g3
tp5727
a(g4896
g1665
g3
tp5728
a(g4896
g1667
g3
tp5729
a(g4896
g1669
g3
tp5730
a(g4896
g1671
g3
tp5731
a(g4896
g1673
g3
tp5732
a(g4896
g1675
g3
tp5733
a(g4896
g1677
g3
tp5734
a(g4896
g1679
g3
tp5735
a(g4896
g1681
g3
tp5736
a(g4896
g1683
g3
tp5737
a(g4896
g1685
g3
tp5738
a(g4896
g1687
g3
tp5739
a(g4896
g1689
g3
tp5740
a(g4896
g1691
g3
tp5741
a(g4896
g1693
g3
tp5742
a(g4896
g1695
g3
tp5743
a(g4896
g1697
g3
tp5744
a(g4896
g1699
g3
tp5745
a(g4896
g1701
g3
tp5746
a(g4896
g1703
g3
tp5747
a(g4896
g1705
g3
tp5748
a(g4896
g1707
g3
tp5749
a(g4896
g1709
g3
tp5750
a(g4896
g1711
g3
tp5751
a(g4896
g1713
g3
tp5752
a(g4896
g1715
g3
tp5753
a(g4896
g1717
g3
tp5754
a(g4896
g1719
g3
tp5755
a(g4896
g1721
g3
tp5756
a(g4896
g1723
g3
tp5757
a(g4896
g1725
g3
tp5758
a(g4896
g1727
g3
tp5759
a(g4896
g1729
g3
tp5760
a(g4896
g1731
g3
tp5761
a(g4896
g1733
g3
tp5762
a(g4896
g1735
g3
tp5763
a(g4896
g1737
g3
tp5764
a(g4896
g1739
g3
tp5765
a(g4896
g1741
g3
tp5766
a(g4896
g1743
g3
tp5767
a(g4896
g1745
g3
tp5768
a(g4896
g1747
g3
tp5769
a(g4896
g1749
g3
tp5770
a(g4896
g1751
g3
tp5771
a(g4896
g1753
g3
tp5772
a(g4896
g1755
g3
tp5773
a(g4896
g1757
g3
tp5774
a(g4896
g1759
g3
tp5775
a(g4896
g1761
g3
tp5776
a(g4896
g1763
g3
tp5777
a(g4896
g1765
g3
tp5778
a(g4896
g1767
g3
tp5779
a(g4896
g1769
g3
tp5780
a(g4896
g1771
g3
tp5781
a(g4896
g1773
g3
tp5782
a(g4896
g1775
g3
tp5783
a(g4896
g1777
g3
tp5784
a(g4896
g1779
g3
tp5785
a(g4896
g1781
g3
tp5786
a(g4896
g1783
g3
tp5787
a(g4896
g1785
g3
tp5788
a(g4896
g1787
g3
tp5789
a(g4896
g1789
g3
tp5790
a(g4896
g1791
g3
tp5791
a(g4896
g1793
g3
tp5792
a(g4896
g1795
g3
tp5793
a(g4896
g1797
g3
tp5794
a(g4896
g1799
g3
tp5795
a(g4896
g1801
g3
tp5796
a(g4896
g1803
g3
tp5797
a(g4896
g1805
g3
tp5798
a(g4896
g1807
g3
tp5799
a(g4896
g1809
g3
tp5800
a(g4896
g1811
g3
tp5801
a(g4896
g1813
g3
tp5802
a(g4896
g1815
g3
tp5803
a(g4896
g1817
g3
tp5804
a(g4896
g1819
g3
tp5805
a(g4896
g1821
g3
tp5806
a(g4896
g1823
g3
tp5807
a(g4896
g1825
g3
tp5808
a(g4896
g1827
g3
tp5809
a(g4896
g1829
g3
tp5810
a(g4896
g1831
g3
tp5811
a(g4896
g1833
g3
tp5812
a(g4896
g1835
g3
tp5813
a(g4896
g1837
g3
tp5814
a(g4896
g1839
g3
tp5815
a(g4896
g1841
g3
tp5816
a(g4896
g1843
g3
tp5817
a(g4896
g1845
g3
tp5818
a(g4896
g1847
g3
tp5819
a(g4896
g1849
g3
tp5820
a(g4896
g1851
g3
tp5821
a(g4896
g1853
g3
tp5822
a(g4896
g1855
g3
tp5823
a(g4896
g1857
g3
tp5824
a(g4896
g1859
g3
tp5825
a(g4896
g1861
g3
tp5826
a(g4896
g1863
g3
tp5827
a(g4896
g1865
g3
tp5828
a(g4896
g1867
g3
tp5829
a(g4896
g1869
g3
tp5830
a(g4896
g1871
g3
tp5831
a(g4896
g1873
g3
tp5832
a(g4896
g1875
g3
tp5833
a(g4896
g1877
g3
tp5834
a(g4896
g1879
g3
tp5835
a(g4896
g1881
g3
tp5836
a(g4896
g1883
g3
tp5837
a(g4896
g1885
g3
tp5838
a(g4896
g1887
g3
tp5839
a(g4896
g1889
g3
tp5840
a(g4896
g1891
g3
tp5841
a(g4896
g1893
g3
tp5842
a(g4896
g1895
g3
tp5843
a(g4896
g1897
g3
tp5844
a(g4896
g1899
g3
tp5845
a(g4896
g1901
g3
tp5846
a(g4896
g1903
g3
tp5847
a(g4896
g1905
g3
tp5848
a(g4896
g1907
g3
tp5849
a(g4896
g1909
g3
tp5850
a(g4896
g1911
g3
tp5851
a(g4896
g1913
g3
tp5852
a(g4896
g1915
g3
tp5853
a(g4896
g1917
g3
tp5854
a(g4896
g1919
g3
tp5855
a(g4896
g1921
g3
tp5856
a(g4896
g1923
g3
tp5857
a(g4896
g1925
g3
tp5858
a(g4896
g1927
g3
tp5859
a(g4896
g1929
g3
tp5860
a(g4896
g1931
g3
tp5861
a(g4896
g1933
g3
tp5862
a(g4896
g1935
g3
tp5863
a(g4896
g1937
g3
tp5864
a(g4896
g1939
g3
tp5865
a(g4896
g1941
g3
tp5866
a(g4896
g1943
g3
tp5867
a(g4896
g1945
g3
tp5868
a(g4896
g1947
g3
tp5869
a(g4896
g1949
g3
tp5870
a(g4896
g1951
g3
tp5871
a(g4896
g1953
g3
tp5872
a(g4896
g1955
g3
tp5873
a(g4896
g1957
g3
tp5874
a(S'HCC515'
p5875
g2
g3
tp5876
a(g5875
g5
g3
tp5877
a(g5875
g7
g3
tp5878
a(g5875
g9
g3
tp5879
a(g5875
g11
g3
tp5880
a(g5875
g13
g3
tp5881
a(g5875
g15
g3
tp5882
a(g5875
g17
g3
tp5883
a(g5875
g19
g3
tp5884
a(g5875
g21
g3
tp5885
a(g5875
g23
g3
tp5886
a(g5875
g25
g3
tp5887
a(g5875
g27
g3
tp5888
a(g5875
g29
g3
tp5889
a(g5875
g31
g3
tp5890
a(g5875
g33
g3
tp5891
a(g5875
g35
g3
tp5892
a(g5875
g37
g3
tp5893
a(g5875
g39
g3
tp5894
a(g5875
g41
g3
tp5895
a(g5875
g43
g3
tp5896
a(g5875
g45
g3
tp5897
a(g5875
g47
g3
tp5898
a(g5875
g49
g3
tp5899
a(g5875
g51
g3
tp5900
a(g5875
g53
g3
tp5901
a(g5875
g55
g3
tp5902
a(g5875
g57
g3
tp5903
a(g5875
g59
g3
tp5904
a(g5875
g61
g3
tp5905
a(g5875
g63
g3
tp5906
a(g5875
g65
g3
tp5907
a(g5875
g67
g3
tp5908
a(g5875
g69
g3
tp5909
a(g5875
g71
g3
tp5910
a(g5875
g73
g3
tp5911
a(g5875
g75
g3
tp5912
a(g5875
g77
g3
tp5913
a(g5875
g79
g3
tp5914
a(g5875
g81
g3
tp5915
a(g5875
g83
g3
tp5916
a(g5875
g85
g3
tp5917
a(g5875
g87
g3
tp5918
a(g5875
g89
g3
tp5919
a(g5875
g91
g3
tp5920
a(g5875
g93
g3
tp5921
a(g5875
g95
g3
tp5922
a(g5875
g97
g3
tp5923
a(g5875
g99
g3
tp5924
a(g5875
g101
g3
tp5925
a(g5875
g103
g3
tp5926
a(g5875
g105
g3
tp5927
a(g5875
g107
g3
tp5928
a(g5875
g109
g3
tp5929
a(g5875
g111
g3
tp5930
a(g5875
g113
g3
tp5931
a(g5875
g115
g3
tp5932
a(g5875
g117
g3
tp5933
a(g5875
g119
g3
tp5934
a(g5875
g121
g3
tp5935
a(g5875
g123
g3
tp5936
a(g5875
g125
g3
tp5937
a(g5875
g127
g3
tp5938
a(g5875
g129
g3
tp5939
a(g5875
g131
g3
tp5940
a(g5875
g133
g3
tp5941
a(g5875
g135
g3
tp5942
a(g5875
g137
g3
tp5943
a(g5875
g139
g3
tp5944
a(g5875
g141
g3
tp5945
a(g5875
g143
g3
tp5946
a(g5875
g145
g3
tp5947
a(g5875
g147
g3
tp5948
a(g5875
g149
g3
tp5949
a(g5875
g151
g3
tp5950
a(g5875
g153
g3
tp5951
a(g5875
g155
g3
tp5952
a(g5875
g157
g3
tp5953
a(g5875
g159
g3
tp5954
a(g5875
g161
g3
tp5955
a(g5875
g163
g3
tp5956
a(g5875
g165
g3
tp5957
a(g5875
g167
g3
tp5958
a(g5875
g169
g3
tp5959
a(g5875
g171
g3
tp5960
a(g5875
g173
g3
tp5961
a(g5875
g175
g3
tp5962
a(g5875
g177
g3
tp5963
a(g5875
g179
g3
tp5964
a(g5875
g181
g3
tp5965
a(g5875
g183
g3
tp5966
a(g5875
g185
g3
tp5967
a(g5875
g187
g3
tp5968
a(g5875
g189
g3
tp5969
a(g5875
g191
g3
tp5970
a(g5875
g193
g3
tp5971
a(g5875
g195
g3
tp5972
a(g5875
g197
g3
tp5973
a(g5875
g199
g3
tp5974
a(g5875
g201
g3
tp5975
a(g5875
g203
g3
tp5976
a(g5875
g205
g3
tp5977
a(g5875
g207
g3
tp5978
a(g5875
g209
g3
tp5979
a(g5875
g211
g3
tp5980
a(g5875
g213
g3
tp5981
a(g5875
g215
g3
tp5982
a(g5875
g217
g3
tp5983
a(g5875
g219
g3
tp5984
a(g5875
g221
g3
tp5985
a(g5875
g223
g3
tp5986
a(g5875
g225
g3
tp5987
a(g5875
g227
g3
tp5988
a(g5875
g229
g3
tp5989
a(g5875
g231
g3
tp5990
a(g5875
g233
g3
tp5991
a(g5875
g235
g3
tp5992
a(g5875
g237
g3
tp5993
a(g5875
g239
g3
tp5994
a(g5875
g241
g3
tp5995
a(g5875
g243
g3
tp5996
a(g5875
g245
g3
tp5997
a(g5875
g247
g3
tp5998
a(g5875
g249
g3
tp5999
a(g5875
g251
g3
tp6000
a(g5875
g253
g3
tp6001
a(g5875
g255
g3
tp6002
a(g5875
g257
g3
tp6003
a(g5875
g259
g3
tp6004
a(g5875
g261
g3
tp6005
a(g5875
g263
g3
tp6006
a(g5875
g265
g3
tp6007
a(g5875
g267
g3
tp6008
a(g5875
g269
g3
tp6009
a(g5875
g271
g3
tp6010
a(g5875
g273
g3
tp6011
a(g5875
g275
g3
tp6012
a(g5875
g277
g3
tp6013
a(g5875
g279
g3
tp6014
a(g5875
g281
g3
tp6015
a(g5875
g283
g3
tp6016
a(g5875
g285
g3
tp6017
a(g5875
g287
g3
tp6018
a(g5875
g289
g3
tp6019
a(g5875
g291
g3
tp6020
a(g5875
g293
g3
tp6021
a(g5875
g295
g3
tp6022
a(g5875
g297
g3
tp6023
a(g5875
g299
g3
tp6024
a(g5875
g301
g3
tp6025
a(g5875
g303
g3
tp6026
a(g5875
g305
g3
tp6027
a(g5875
g307
g3
tp6028
a(g5875
g309
g3
tp6029
a(g5875
g311
g3
tp6030
a(g5875
g313
g3
tp6031
a(g5875
g315
g3
tp6032
a(g5875
g317
g3
tp6033
a(g5875
g319
g3
tp6034
a(g5875
g321
g3
tp6035
a(g5875
g323
g3
tp6036
a(g5875
g325
g3
tp6037
a(g5875
g327
g3
tp6038
a(g5875
g329
g3
tp6039
a(g5875
g331
g3
tp6040
a(g5875
g333
g3
tp6041
a(g5875
g335
g3
tp6042
a(g5875
g337
g3
tp6043
a(g5875
g339
g3
tp6044
a(g5875
g341
g3
tp6045
a(g5875
g343
g3
tp6046
a(g5875
g345
g3
tp6047
a(g5875
g347
g3
tp6048
a(g5875
g349
g3
tp6049
a(g5875
g351
g3
tp6050
a(g5875
g353
g3
tp6051
a(g5875
g355
g3
tp6052
a(g5875
g357
g3
tp6053
a(g5875
g359
g3
tp6054
a(g5875
g361
g3
tp6055
a(g5875
g363
g3
tp6056
a(g5875
g365
g3
tp6057
a(g5875
g367
g3
tp6058
a(g5875
g369
g3
tp6059
a(g5875
g371
g3
tp6060
a(g5875
g373
g3
tp6061
a(g5875
g375
g3
tp6062
a(g5875
g377
g3
tp6063
a(g5875
g379
g3
tp6064
a(g5875
g381
g3
tp6065
a(g5875
g383
g3
tp6066
a(g5875
g385
g3
tp6067
a(g5875
g387
g3
tp6068
a(g5875
g389
g3
tp6069
a(g5875
g391
g3
tp6070
a(g5875
g393
g3
tp6071
a(g5875
g395
g3
tp6072
a(g5875
g397
g3
tp6073
a(g5875
g399
g3
tp6074
a(g5875
g401
g3
tp6075
a(g5875
g403
g3
tp6076
a(g5875
g405
g3
tp6077
a(g5875
g407
g3
tp6078
a(g5875
g409
g3
tp6079
a(g5875
g411
g3
tp6080
a(g5875
g413
g3
tp6081
a(g5875
g415
g3
tp6082
a(g5875
g417
g3
tp6083
a(g5875
g419
g3
tp6084
a(g5875
g421
g3
tp6085
a(g5875
g423
g3
tp6086
a(g5875
g425
g3
tp6087
a(g5875
g427
g3
tp6088
a(g5875
g429
g3
tp6089
a(g5875
g431
g3
tp6090
a(g5875
g433
g3
tp6091
a(g5875
g435
g3
tp6092
a(g5875
g437
g3
tp6093
a(g5875
g439
g3
tp6094
a(g5875
g441
g3
tp6095
a(g5875
g443
g3
tp6096
a(g5875
g445
g3
tp6097
a(g5875
g447
g3
tp6098
a(g5875
g449
g3
tp6099
a(g5875
g451
g3
tp6100
a(g5875
g453
g3
tp6101
a(g5875
g455
g3
tp6102
a(g5875
g457
g3
tp6103
a(g5875
g459
g3
tp6104
a(g5875
g461
g3
tp6105
a(g5875
g463
g3
tp6106
a(g5875
g465
g3
tp6107
a(g5875
g467
g3
tp6108
a(g5875
g469
g3
tp6109
a(g5875
g471
g3
tp6110
a(g5875
g473
g3
tp6111
a(g5875
g475
g3
tp6112
a(g5875
g477
g3
tp6113
a(g5875
g479
g3
tp6114
a(g5875
g481
g3
tp6115
a(g5875
g483
g3
tp6116
a(g5875
g485
g3
tp6117
a(g5875
g487
g3
tp6118
a(g5875
g489
g3
tp6119
a(g5875
g491
g3
tp6120
a(g5875
g493
g3
tp6121
a(g5875
g495
g3
tp6122
a(g5875
g497
g3
tp6123
a(g5875
g499
g3
tp6124
a(g5875
g501
g3
tp6125
a(g5875
g503
g3
tp6126
a(g5875
g505
g3
tp6127
a(g5875
g507
g3
tp6128
a(g5875
g509
g3
tp6129
a(g5875
g511
g3
tp6130
a(g5875
g513
g3
tp6131
a(g5875
g515
g3
tp6132
a(g5875
g517
g3
tp6133
a(g5875
g519
g3
tp6134
a(g5875
g521
g3
tp6135
a(g5875
g523
g3
tp6136
a(g5875
g525
g3
tp6137
a(g5875
g527
g3
tp6138
a(g5875
g529
g3
tp6139
a(g5875
g531
g3
tp6140
a(g5875
g533
g3
tp6141
a(g5875
g535
g3
tp6142
a(g5875
g537
g3
tp6143
a(g5875
g539
g3
tp6144
a(g5875
g541
g3
tp6145
a(g5875
g543
g3
tp6146
a(g5875
g545
g3
tp6147
a(g5875
g547
g3
tp6148
a(g5875
g549
g3
tp6149
a(g5875
g551
g3
tp6150
a(g5875
g553
g3
tp6151
a(g5875
g555
g3
tp6152
a(g5875
g557
g3
tp6153
a(g5875
g559
g3
tp6154
a(g5875
g561
g3
tp6155
a(g5875
g563
g3
tp6156
a(g5875
g565
g3
tp6157
a(g5875
g567
g3
tp6158
a(g5875
g569
g3
tp6159
a(g5875
g571
g3
tp6160
a(g5875
g573
g3
tp6161
a(g5875
g575
g3
tp6162
a(g5875
g577
g3
tp6163
a(g5875
g579
g3
tp6164
a(g5875
g581
g3
tp6165
a(g5875
g583
g3
tp6166
a(g5875
g585
g3
tp6167
a(g5875
g587
g3
tp6168
a(g5875
g589
g3
tp6169
a(g5875
g591
g3
tp6170
a(g5875
g593
g3
tp6171
a(g5875
g595
g3
tp6172
a(g5875
g597
g3
tp6173
a(g5875
g599
g3
tp6174
a(g5875
g601
g3
tp6175
a(g5875
g603
g3
tp6176
a(g5875
g605
g3
tp6177
a(g5875
g607
g3
tp6178
a(g5875
g609
g3
tp6179
a(g5875
g611
g3
tp6180
a(g5875
g613
g3
tp6181
a(g5875
g615
g3
tp6182
a(g5875
g617
g3
tp6183
a(g5875
g619
g3
tp6184
a(g5875
g621
g3
tp6185
a(g5875
g623
g3
tp6186
a(g5875
g625
g3
tp6187
a(g5875
g627
g3
tp6188
a(g5875
g629
g3
tp6189
a(g5875
g631
g3
tp6190
a(g5875
g633
g3
tp6191
a(g5875
g635
g3
tp6192
a(g5875
g637
g3
tp6193
a(g5875
g639
g3
tp6194
a(g5875
g641
g3
tp6195
a(g5875
g643
g3
tp6196
a(g5875
g645
g3
tp6197
a(g5875
g647
g3
tp6198
a(g5875
g649
g3
tp6199
a(g5875
g651
g3
tp6200
a(g5875
g653
g3
tp6201
a(g5875
g655
g3
tp6202
a(g5875
g657
g3
tp6203
a(g5875
g659
g3
tp6204
a(g5875
g661
g3
tp6205
a(g5875
g663
g3
tp6206
a(g5875
g665
g3
tp6207
a(g5875
g667
g3
tp6208
a(g5875
g669
g3
tp6209
a(g5875
g671
g3
tp6210
a(g5875
g673
g3
tp6211
a(g5875
g675
g3
tp6212
a(g5875
g677
g3
tp6213
a(g5875
g679
g3
tp6214
a(g5875
g681
g3
tp6215
a(g5875
g683
g3
tp6216
a(g5875
g685
g3
tp6217
a(g5875
g687
g3
tp6218
a(g5875
g689
g3
tp6219
a(g5875
g691
g3
tp6220
a(g5875
g693
g3
tp6221
a(g5875
g695
g3
tp6222
a(g5875
g697
g3
tp6223
a(g5875
g699
g3
tp6224
a(g5875
g701
g3
tp6225
a(g5875
g703
g3
tp6226
a(g5875
g705
g3
tp6227
a(g5875
g707
g3
tp6228
a(g5875
g709
g3
tp6229
a(g5875
g711
g3
tp6230
a(g5875
g713
g3
tp6231
a(g5875
g715
g3
tp6232
a(g5875
g717
g3
tp6233
a(g5875
g719
g3
tp6234
a(g5875
g721
g3
tp6235
a(g5875
g723
g3
tp6236
a(g5875
g725
g3
tp6237
a(g5875
g727
g3
tp6238
a(g5875
g729
g3
tp6239
a(g5875
g731
g3
tp6240
a(g5875
g733
g3
tp6241
a(g5875
g735
g3
tp6242
a(g5875
g737
g3
tp6243
a(g5875
g739
g3
tp6244
a(g5875
g741
g3
tp6245
a(g5875
g743
g3
tp6246
a(g5875
g745
g3
tp6247
a(g5875
g747
g3
tp6248
a(g5875
g749
g3
tp6249
a(g5875
g751
g3
tp6250
a(g5875
g753
g3
tp6251
a(g5875
g755
g3
tp6252
a(g5875
g757
g3
tp6253
a(g5875
g759
g3
tp6254
a(g5875
g761
g3
tp6255
a(g5875
g763
g3
tp6256
a(g5875
g765
g3
tp6257
a(g5875
g767
g3
tp6258
a(g5875
g769
g3
tp6259
a(g5875
g771
g3
tp6260
a(g5875
g773
g3
tp6261
a(g5875
g775
g3
tp6262
a(g5875
g777
g3
tp6263
a(g5875
g779
g3
tp6264
a(g5875
g781
g3
tp6265
a(g5875
g783
g3
tp6266
a(g5875
g785
g3
tp6267
a(g5875
g787
g3
tp6268
a(g5875
g789
g3
tp6269
a(g5875
g791
g3
tp6270
a(g5875
g793
g3
tp6271
a(g5875
g795
g3
tp6272
a(g5875
g797
g3
tp6273
a(g5875
g799
g3
tp6274
a(g5875
g801
g3
tp6275
a(g5875
g803
g3
tp6276
a(g5875
g805
g3
tp6277
a(g5875
g807
g3
tp6278
a(g5875
g809
g3
tp6279
a(g5875
g811
g3
tp6280
a(g5875
g813
g3
tp6281
a(g5875
g815
g3
tp6282
a(g5875
g817
g3
tp6283
a(g5875
g819
g3
tp6284
a(g5875
g821
g3
tp6285
a(g5875
g823
g3
tp6286
a(g5875
g825
g3
tp6287
a(g5875
g827
g3
tp6288
a(g5875
g829
g3
tp6289
a(g5875
g831
g3
tp6290
a(g5875
g833
g3
tp6291
a(g5875
g835
g3
tp6292
a(g5875
g837
g3
tp6293
a(g5875
g839
g3
tp6294
a(g5875
g841
g3
tp6295
a(g5875
g843
g3
tp6296
a(g5875
g845
g3
tp6297
a(g5875
g847
g3
tp6298
a(g5875
g849
g3
tp6299
a(g5875
g851
g3
tp6300
a(g5875
g853
g3
tp6301
a(g5875
g855
g3
tp6302
a(g5875
g857
g3
tp6303
a(g5875
g859
g3
tp6304
a(g5875
g861
g3
tp6305
a(g5875
g863
g3
tp6306
a(g5875
g865
g3
tp6307
a(g5875
g867
g3
tp6308
a(g5875
g869
g3
tp6309
a(g5875
g871
g3
tp6310
a(g5875
g873
g3
tp6311
a(g5875
g875
g3
tp6312
a(g5875
g877
g3
tp6313
a(g5875
g879
g3
tp6314
a(g5875
g881
g3
tp6315
a(g5875
g883
g3
tp6316
a(g5875
g885
g3
tp6317
a(g5875
g887
g3
tp6318
a(g5875
g889
g3
tp6319
a(g5875
g891
g3
tp6320
a(g5875
g893
g3
tp6321
a(g5875
g895
g3
tp6322
a(g5875
g897
g3
tp6323
a(g5875
g899
g3
tp6324
a(g5875
g901
g3
tp6325
a(g5875
g903
g3
tp6326
a(g5875
g905
g3
tp6327
a(g5875
g907
g3
tp6328
a(g5875
g909
g3
tp6329
a(g5875
g911
g3
tp6330
a(g5875
g913
g3
tp6331
a(g5875
g915
g3
tp6332
a(g5875
g917
g3
tp6333
a(g5875
g919
g3
tp6334
a(g5875
g921
g3
tp6335
a(g5875
g923
g3
tp6336
a(g5875
g925
g3
tp6337
a(g5875
g927
g3
tp6338
a(g5875
g929
g3
tp6339
a(g5875
g931
g3
tp6340
a(g5875
g933
g3
tp6341
a(g5875
g935
g3
tp6342
a(g5875
g937
g3
tp6343
a(g5875
g939
g3
tp6344
a(g5875
g941
g3
tp6345
a(g5875
g943
g3
tp6346
a(g5875
g945
g3
tp6347
a(g5875
g947
g3
tp6348
a(g5875
g949
g3
tp6349
a(g5875
g951
g3
tp6350
a(g5875
g953
g3
tp6351
a(g5875
g955
g3
tp6352
a(g5875
g957
g3
tp6353
a(g5875
g959
g3
tp6354
a(g5875
g961
g3
tp6355
a(g5875
g963
g3
tp6356
a(g5875
g965
g3
tp6357
a(g5875
g967
g3
tp6358
a(g5875
g969
g3
tp6359
a(g5875
g971
g3
tp6360
a(g5875
g973
g3
tp6361
a(g5875
g975
g3
tp6362
a(g5875
g977
g3
tp6363
a(g5875
g979
g3
tp6364
a(g5875
g981
g3
tp6365
a(g5875
g983
g3
tp6366
a(g5875
g985
g3
tp6367
a(g5875
g987
g3
tp6368
a(g5875
g989
g3
tp6369
a(g5875
g991
g3
tp6370
a(g5875
g993
g3
tp6371
a(g5875
g995
g3
tp6372
a(g5875
g997
g3
tp6373
a(g5875
g999
g3
tp6374
a(g5875
g1001
g3
tp6375
a(g5875
g1003
g3
tp6376
a(g5875
g1005
g3
tp6377
a(g5875
g1007
g3
tp6378
a(g5875
g1009
g3
tp6379
a(g5875
g1011
g3
tp6380
a(g5875
g1013
g3
tp6381
a(g5875
g1015
g3
tp6382
a(g5875
g1017
g3
tp6383
a(g5875
g1019
g3
tp6384
a(g5875
g1021
g3
tp6385
a(g5875
g1023
g3
tp6386
a(g5875
g1025
g3
tp6387
a(g5875
g1027
g3
tp6388
a(g5875
g1029
g3
tp6389
a(g5875
g1031
g3
tp6390
a(g5875
g1033
g3
tp6391
a(g5875
g1035
g3
tp6392
a(g5875
g1037
g3
tp6393
a(g5875
g1039
g3
tp6394
a(g5875
g1041
g3
tp6395
a(g5875
g1043
g3
tp6396
a(g5875
g1045
g3
tp6397
a(g5875
g1047
g3
tp6398
a(g5875
g1049
g3
tp6399
a(g5875
g1051
g3
tp6400
a(g5875
g1053
g3
tp6401
a(g5875
g1055
g3
tp6402
a(g5875
g1057
g3
tp6403
a(g5875
g1059
g3
tp6404
a(g5875
g1061
g3
tp6405
a(g5875
g1063
g3
tp6406
a(g5875
g1065
g3
tp6407
a(g5875
g1067
g3
tp6408
a(g5875
g1069
g3
tp6409
a(g5875
g1071
g3
tp6410
a(g5875
g1073
g3
tp6411
a(g5875
g1075
g3
tp6412
a(g5875
g1077
g3
tp6413
a(g5875
g1079
g3
tp6414
a(g5875
g1081
g3
tp6415
a(g5875
g1083
g3
tp6416
a(g5875
g1085
g3
tp6417
a(g5875
g1087
g3
tp6418
a(g5875
g1089
g3
tp6419
a(g5875
g1091
g3
tp6420
a(g5875
g1093
g3
tp6421
a(g5875
g1095
g3
tp6422
a(g5875
g1097
g3
tp6423
a(g5875
g1099
g3
tp6424
a(g5875
g1101
g3
tp6425
a(g5875
g1103
g3
tp6426
a(g5875
g1105
g3
tp6427
a(g5875
g1107
g3
tp6428
a(g5875
g1109
g3
tp6429
a(g5875
g1111
g3
tp6430
a(g5875
g1113
g3
tp6431
a(g5875
g1115
g3
tp6432
a(g5875
g1117
g3
tp6433
a(g5875
g1119
g3
tp6434
a(g5875
g1121
g3
tp6435
a(g5875
g1123
g3
tp6436
a(g5875
g1125
g3
tp6437
a(g5875
g1127
g3
tp6438
a(g5875
g1129
g3
tp6439
a(g5875
g1131
g3
tp6440
a(g5875
g1133
g3
tp6441
a(g5875
g1135
g3
tp6442
a(g5875
g1137
g3
tp6443
a(g5875
g1139
g3
tp6444
a(g5875
g1141
g3
tp6445
a(g5875
g1143
g3
tp6446
a(g5875
g1145
g3
tp6447
a(g5875
g1147
g3
tp6448
a(g5875
g1149
g3
tp6449
a(g5875
g1151
g3
tp6450
a(g5875
g1153
g3
tp6451
a(g5875
g1155
g3
tp6452
a(g5875
g1157
g3
tp6453
a(g5875
g1159
g3
tp6454
a(g5875
g1161
g3
tp6455
a(g5875
g1163
g3
tp6456
a(g5875
g1165
g3
tp6457
a(g5875
g1167
g3
tp6458
a(g5875
g1169
g3
tp6459
a(g5875
g1171
g3
tp6460
a(g5875
g1173
g3
tp6461
a(g5875
g1175
g3
tp6462
a(g5875
g1177
g3
tp6463
a(g5875
g1179
g3
tp6464
a(g5875
g1181
g3
tp6465
a(g5875
g1183
g3
tp6466
a(g5875
g1185
g3
tp6467
a(g5875
g1187
g3
tp6468
a(g5875
g1189
g3
tp6469
a(g5875
g1191
g3
tp6470
a(g5875
g1193
g3
tp6471
a(g5875
g1195
g3
tp6472
a(g5875
g1197
g3
tp6473
a(g5875
g1199
g3
tp6474
a(g5875
g1201
g3
tp6475
a(g5875
g1203
g3
tp6476
a(g5875
g1205
g3
tp6477
a(g5875
g1207
g3
tp6478
a(g5875
g1209
g3
tp6479
a(g5875
g1211
g3
tp6480
a(g5875
g1213
g3
tp6481
a(g5875
g1215
g3
tp6482
a(g5875
g1217
g3
tp6483
a(g5875
g1219
g3
tp6484
a(g5875
g1221
g3
tp6485
a(g5875
g1223
g3
tp6486
a(g5875
g1225
g3
tp6487
a(g5875
g1227
g3
tp6488
a(g5875
g1229
g3
tp6489
a(g5875
g1231
g3
tp6490
a(g5875
g1233
g3
tp6491
a(g5875
g1235
g3
tp6492
a(g5875
g1237
g3
tp6493
a(g5875
g1239
g3
tp6494
a(g5875
g1241
g3
tp6495
a(g5875
g1243
g3
tp6496
a(g5875
g1245
g3
tp6497
a(g5875
g1247
g3
tp6498
a(g5875
g1249
g3
tp6499
a(g5875
g1251
g3
tp6500
a(g5875
g1253
g3
tp6501
a(g5875
g1255
g3
tp6502
a(g5875
g1257
g3
tp6503
a(g5875
g1259
g3
tp6504
a(g5875
g1261
g3
tp6505
a(g5875
g1263
g3
tp6506
a(g5875
g1265
g3
tp6507
a(g5875
g1267
g3
tp6508
a(g5875
g1269
g3
tp6509
a(g5875
g1271
g3
tp6510
a(g5875
g1273
g3
tp6511
a(g5875
g1275
g3
tp6512
a(g5875
g1277
g3
tp6513
a(g5875
g1279
g3
tp6514
a(g5875
g1281
g3
tp6515
a(g5875
g1283
g3
tp6516
a(g5875
g1285
g3
tp6517
a(g5875
g1287
g3
tp6518
a(g5875
g1289
g3
tp6519
a(g5875
g1291
g3
tp6520
a(g5875
g1293
g3
tp6521
a(g5875
g1295
g3
tp6522
a(g5875
g1297
g3
tp6523
a(g5875
g1299
g3
tp6524
a(g5875
g1301
g3
tp6525
a(g5875
g1303
g3
tp6526
a(g5875
g1305
g3
tp6527
a(g5875
g1307
g3
tp6528
a(g5875
g1309
g3
tp6529
a(g5875
g1311
g3
tp6530
a(g5875
g1313
g3
tp6531
a(g5875
g1315
g3
tp6532
a(g5875
g1317
g3
tp6533
a(g5875
g1319
g3
tp6534
a(g5875
g1321
g3
tp6535
a(g5875
g1323
g3
tp6536
a(g5875
g1325
g3
tp6537
a(g5875
g1327
g3
tp6538
a(g5875
g1329
g3
tp6539
a(g5875
g1331
g3
tp6540
a(g5875
g1333
g3
tp6541
a(g5875
g1335
g3
tp6542
a(g5875
g1337
g3
tp6543
a(g5875
g1339
g3
tp6544
a(g5875
g1341
g3
tp6545
a(g5875
g1343
g3
tp6546
a(g5875
g1345
g3
tp6547
a(g5875
g1347
g3
tp6548
a(g5875
g1349
g3
tp6549
a(g5875
g1351
g3
tp6550
a(g5875
g1353
g3
tp6551
a(g5875
g1355
g3
tp6552
a(g5875
g1357
g3
tp6553
a(g5875
g1359
g3
tp6554
a(g5875
g1361
g3
tp6555
a(g5875
g1363
g3
tp6556
a(g5875
g1365
g3
tp6557
a(g5875
g1367
g3
tp6558
a(g5875
g1369
g3
tp6559
a(g5875
g1371
g3
tp6560
a(g5875
g1373
g3
tp6561
a(g5875
g1375
g3
tp6562
a(g5875
g1377
g3
tp6563
a(g5875
g1379
g3
tp6564
a(g5875
g1381
g3
tp6565
a(g5875
g1383
g3
tp6566
a(g5875
g1385
g3
tp6567
a(g5875
g1387
g3
tp6568
a(g5875
g1389
g3
tp6569
a(g5875
g1391
g3
tp6570
a(g5875
g1393
g3
tp6571
a(g5875
g1395
g3
tp6572
a(g5875
g1397
g3
tp6573
a(g5875
g1399
g3
tp6574
a(g5875
g1401
g3
tp6575
a(g5875
g1403
g3
tp6576
a(g5875
g1405
g3
tp6577
a(g5875
g1407
g3
tp6578
a(g5875
g1409
g3
tp6579
a(g5875
g1411
g3
tp6580
a(g5875
g1413
g3
tp6581
a(g5875
g1415
g3
tp6582
a(g5875
g1417
g3
tp6583
a(g5875
g1419
g3
tp6584
a(g5875
g1421
g3
tp6585
a(g5875
g1423
g3
tp6586
a(g5875
g1425
g3
tp6587
a(g5875
g1427
g3
tp6588
a(g5875
g1429
g3
tp6589
a(g5875
g1431
g3
tp6590
a(g5875
g1433
g3
tp6591
a(g5875
g1435
g3
tp6592
a(g5875
g1437
g3
tp6593
a(g5875
g1439
g3
tp6594
a(g5875
g1441
g3
tp6595
a(g5875
g1443
g3
tp6596
a(g5875
g1445
g3
tp6597
a(g5875
g1447
g3
tp6598
a(g5875
g1449
g3
tp6599
a(g5875
g1451
g3
tp6600
a(g5875
g1453
g3
tp6601
a(g5875
g1455
g3
tp6602
a(g5875
g1457
g3
tp6603
a(g5875
g1459
g3
tp6604
a(g5875
g1461
g3
tp6605
a(g5875
g1463
g3
tp6606
a(g5875
g1465
g3
tp6607
a(g5875
g1467
g3
tp6608
a(g5875
g1469
g3
tp6609
a(g5875
g1471
g3
tp6610
a(g5875
g1473
g3
tp6611
a(g5875
g1475
g3
tp6612
a(g5875
g1477
g3
tp6613
a(g5875
g1479
g3
tp6614
a(g5875
g1481
g3
tp6615
a(g5875
g1483
g3
tp6616
a(g5875
g1485
g3
tp6617
a(g5875
g1487
g3
tp6618
a(g5875
g1489
g3
tp6619
a(g5875
g1491
g3
tp6620
a(g5875
g1493
g3
tp6621
a(g5875
g1495
g3
tp6622
a(g5875
g1497
g3
tp6623
a(g5875
g1499
g3
tp6624
a(g5875
g1501
g3
tp6625
a(g5875
g1503
g3
tp6626
a(g5875
g1505
g3
tp6627
a(g5875
g1507
g3
tp6628
a(g5875
g1509
g3
tp6629
a(g5875
g1511
g3
tp6630
a(g5875
g1513
g3
tp6631
a(g5875
g1515
g3
tp6632
a(g5875
g1517
g3
tp6633
a(g5875
g1519
g3
tp6634
a(g5875
g1521
g3
tp6635
a(g5875
g1523
g3
tp6636
a(g5875
g1525
g3
tp6637
a(g5875
g1527
g3
tp6638
a(g5875
g1529
g3
tp6639
a(g5875
g1531
g3
tp6640
a(g5875
g1533
g3
tp6641
a(g5875
g1535
g3
tp6642
a(g5875
g1537
g3
tp6643
a(g5875
g1539
g3
tp6644
a(g5875
g1541
g3
tp6645
a(g5875
g1543
g3
tp6646
a(g5875
g1545
g3
tp6647
a(g5875
g1547
g3
tp6648
a(g5875
g1549
g3
tp6649
a(g5875
g1551
g3
tp6650
a(g5875
g1553
g3
tp6651
a(g5875
g1555
g3
tp6652
a(g5875
g1557
g3
tp6653
a(g5875
g1559
g3
tp6654
a(g5875
g1561
g3
tp6655
a(g5875
g1563
g3
tp6656
a(g5875
g1565
g3
tp6657
a(g5875
g1567
g3
tp6658
a(g5875
g1569
g3
tp6659
a(g5875
g1571
g3
tp6660
a(g5875
g1573
g3
tp6661
a(g5875
g1575
g3
tp6662
a(g5875
g1577
g3
tp6663
a(g5875
g1579
g3
tp6664
a(g5875
g1581
g3
tp6665
a(g5875
g1583
g3
tp6666
a(g5875
g1585
g3
tp6667
a(g5875
g1587
g3
tp6668
a(g5875
g1589
g3
tp6669
a(g5875
g1591
g3
tp6670
a(g5875
g1593
g3
tp6671
a(g5875
g1595
g3
tp6672
a(g5875
g1597
g3
tp6673
a(g5875
g1599
g3
tp6674
a(g5875
g1601
g3
tp6675
a(g5875
g1603
g3
tp6676
a(g5875
g1605
g3
tp6677
a(g5875
g1607
g3
tp6678
a(g5875
g1609
g3
tp6679
a(g5875
g1611
g3
tp6680
a(g5875
g1613
g3
tp6681
a(g5875
g1615
g3
tp6682
a(g5875
g1617
g3
tp6683
a(g5875
g1619
g3
tp6684
a(g5875
g1621
g3
tp6685
a(g5875
g1623
g3
tp6686
a(g5875
g1625
g3
tp6687
a(g5875
g1627
g3
tp6688
a(g5875
g1629
g3
tp6689
a(g5875
g1631
g3
tp6690
a(g5875
g1633
g3
tp6691
a(g5875
g1635
g3
tp6692
a(g5875
g1637
g3
tp6693
a(g5875
g1639
g3
tp6694
a(g5875
g1641
g3
tp6695
a(g5875
g1643
g3
tp6696
a(g5875
g1645
g3
tp6697
a(g5875
g1647
g3
tp6698
a(g5875
g1649
g3
tp6699
a(g5875
g1651
g3
tp6700
a(g5875
g1653
g3
tp6701
a(g5875
g1655
g3
tp6702
a(g5875
g1657
g3
tp6703
a(g5875
g1659
g3
tp6704
a(g5875
g1661
g3
tp6705
a(g5875
g1663
g3
tp6706
a(g5875
g1665
g3
tp6707
a(g5875
g1667
g3
tp6708
a(g5875
g1669
g3
tp6709
a(g5875
g1671
g3
tp6710
a(g5875
g1673
g3
tp6711
a(g5875
g1675
g3
tp6712
a(g5875
g1677
g3
tp6713
a(g5875
g1679
g3
tp6714
a(g5875
g1681
g3
tp6715
a(g5875
g1683
g3
tp6716
a(g5875
g1685
g3
tp6717
a(g5875
g1687
g3
tp6718
a(g5875
g1689
g3
tp6719
a(g5875
g1691
g3
tp6720
a(g5875
g1693
g3
tp6721
a(g5875
g1695
g3
tp6722
a(g5875
g1697
g3
tp6723
a(g5875
g1699
g3
tp6724
a(g5875
g1701
g3
tp6725
a(g5875
g1703
g3
tp6726
a(g5875
g1705
g3
tp6727
a(g5875
g1707
g3
tp6728
a(g5875
g1709
g3
tp6729
a(g5875
g1711
g3
tp6730
a(g5875
g1713
g3
tp6731
a(g5875
g1715
g3
tp6732
a(g5875
g1717
g3
tp6733
a(g5875
g1719
g3
tp6734
a(g5875
g1721
g3
tp6735
a(g5875
g1723
g3
tp6736
a(g5875
g1725
g3
tp6737
a(g5875
g1727
g3
tp6738
a(g5875
g1729
g3
tp6739
a(g5875
g1731
g3
tp6740
a(g5875
g1733
g3
tp6741
a(g5875
g1735
g3
tp6742
a(g5875
g1737
g3
tp6743
a(g5875
g1739
g3
tp6744
a(g5875
g1741
g3
tp6745
a(g5875
g1743
g3
tp6746
a(g5875
g1745
g3
tp6747
a(g5875
g1747
g3
tp6748
a(g5875
g1749
g3
tp6749
a(g5875
g1751
g3
tp6750
a(g5875
g1753
g3
tp6751
a(g5875
g1755
g3
tp6752
a(g5875
g1757
g3
tp6753
a(g5875
g1759
g3
tp6754
a(g5875
g1761
g3
tp6755
a(g5875
g1763
g3
tp6756
a(g5875
g1765
g3
tp6757
a(g5875
g1767
g3
tp6758
a(g5875
g1769
g3
tp6759
a(g5875
g1771
g3
tp6760
a(g5875
g1773
g3
tp6761
a(g5875
g1775
g3
tp6762
a(g5875
g1777
g3
tp6763
a(g5875
g1779
g3
tp6764
a(g5875
g1781
g3
tp6765
a(g5875
g1783
g3
tp6766
a(g5875
g1785
g3
tp6767
a(g5875
g1787
g3
tp6768
a(g5875
g1789
g3
tp6769
a(g5875
g1791
g3
tp6770
a(g5875
g1793
g3
tp6771
a(g5875
g1795
g3
tp6772
a(g5875
g1797
g3
tp6773
a(g5875
g1799
g3
tp6774
a(g5875
g1801
g3
tp6775
a(g5875
g1803
g3
tp6776
a(g5875
g1805
g3
tp6777
a(g5875
g1807
g3
tp6778
a(g5875
g1809
g3
tp6779
a(g5875
g1811
g3
tp6780
a(g5875
g1813
g3
tp6781
a(g5875
g1815
g3
tp6782
a(g5875
g1817
g3
tp6783
a(g5875
g1819
g3
tp6784
a(g5875
g1821
g3
tp6785
a(g5875
g1823
g3
tp6786
a(g5875
g1825
g3
tp6787
a(g5875
g1827
g3
tp6788
a(g5875
g1829
g3
tp6789
a(g5875
g1831
g3
tp6790
a(g5875
g1833
g3
tp6791
a(g5875
g1835
g3
tp6792
a(g5875
g1837
g3
tp6793
a(g5875
g1839
g3
tp6794
a(g5875
g1841
g3
tp6795
a(g5875
g1843
g3
tp6796
a(g5875
g1845
g3
tp6797
a(g5875
g1847
g3
tp6798
a(g5875
g1849
g3
tp6799
a(g5875
g1851
g3
tp6800
a(g5875
g1853
g3
tp6801
a(g5875
g1855
g3
tp6802
a(g5875
g1857
g3
tp6803
a(g5875
g1859
g3
tp6804
a(g5875
g1861
g3
tp6805
a(g5875
g1863
g3
tp6806
a(g5875
g1865
g3
tp6807
a(g5875
g1867
g3
tp6808
a(g5875
g1869
g3
tp6809
a(g5875
g1871
g3
tp6810
a(g5875
g1873
g3
tp6811
a(g5875
g1875
g3
tp6812
a(g5875
g1877
g3
tp6813
a(g5875
g1879
g3
tp6814
a(g5875
g1881
g3
tp6815
a(g5875
g1883
g3
tp6816
a(g5875
g1885
g3
tp6817
a(g5875
g1887
g3
tp6818
a(g5875
g1889
g3
tp6819
a(g5875
g1891
g3
tp6820
a(g5875
g1893
g3
tp6821
a(g5875
g1895
g3
tp6822
a(g5875
g1897
g3
tp6823
a(g5875
g1899
g3
tp6824
a(g5875
g1901
g3
tp6825
a(g5875
g1903
g3
tp6826
a(g5875
g1905
g3
tp6827
a(g5875
g1907
g3
tp6828
a(g5875
g1909
g3
tp6829
a(g5875
g1911
g3
tp6830
a(g5875
g1913
g3
tp6831
a(g5875
g1915
g3
tp6832
a(g5875
g1917
g3
tp6833
a(g5875
g1919
g3
tp6834
a(g5875
g1921
g3
tp6835
a(g5875
g1923
g3
tp6836
a(g5875
g1925
g3
tp6837
a(g5875
g1927
g3
tp6838
a(g5875
g1929
g3
tp6839
a(g5875
g1931
g3
tp6840
a(g5875
g1933
g3
tp6841
a(g5875
g1935
g3
tp6842
a(g5875
g1937
g3
tp6843
a(g5875
g1939
g3
tp6844
a(g5875
g1941
g3
tp6845
a(g5875
g1943
g3
tp6846
a(g5875
g1945
g3
tp6847
a(g5875
g1947
g3
tp6848
a(g5875
g1949
g3
tp6849
a(g5875
g1951
g3
tp6850
a(g5875
g1953
g3
tp6851
a(g5875
g1955
g3
tp6852
a(g5875
g1957
g3
tp6853
a(S'A549'
p6854
g2
g3
tp6855
a(g6854
g5
g3
tp6856
a(g6854
g7
g3
tp6857
a(g6854
g9
g3
tp6858
a(g6854
g11
g3
tp6859
a(g6854
g13
g3
tp6860
a(g6854
g15
g3
tp6861
a(g6854
g17
g3
tp6862
a(g6854
g19
g3
tp6863
a(g6854
g21
g3
tp6864
a(g6854
g23
g3
tp6865
a(g6854
g25
g3
tp6866
a(g6854
g27
g3
tp6867
a(g6854
g29
g3
tp6868
a(g6854
g31
g3
tp6869
a(g6854
g33
g3
tp6870
a(g6854
g35
g3
tp6871
a(g6854
g37
g3
tp6872
a(g6854
g39
g3
tp6873
a(g6854
g41
g3
tp6874
a(g6854
g43
g3
tp6875
a(g6854
g45
g3
tp6876
a(g6854
g47
g3
tp6877
a(g6854
g49
g3
tp6878
a(g6854
g51
g3
tp6879
a(g6854
g53
g3
tp6880
a(g6854
g55
g3
tp6881
a(g6854
g57
g3
tp6882
a(g6854
g59
g3
tp6883
a(g6854
g61
g3
tp6884
a(g6854
g63
g3
tp6885
a(g6854
g65
g3
tp6886
a(g6854
g67
g3
tp6887
a(g6854
g69
g3
tp6888
a(g6854
g71
g3
tp6889
a(g6854
g73
g3
tp6890
a(g6854
g75
g3
tp6891
a(g6854
g77
g3
tp6892
a(g6854
g79
g3
tp6893
a(g6854
g81
g3
tp6894
a(g6854
g83
g3
tp6895
a(g6854
g85
g3
tp6896
a(g6854
g87
g3
tp6897
a(g6854
g89
g3
tp6898
a(g6854
g91
g3
tp6899
a(g6854
g93
g3
tp6900
a(g6854
g95
g3
tp6901
a(g6854
g97
g3
tp6902
a(g6854
g99
g3
tp6903
a(g6854
g101
g3
tp6904
a(g6854
g103
g3
tp6905
a(g6854
g105
g3
tp6906
a(g6854
g107
g3
tp6907
a(g6854
g109
g3
tp6908
a(g6854
g111
g3
tp6909
a(g6854
g113
g3
tp6910
a(g6854
g115
g3
tp6911
a(g6854
g117
g3
tp6912
a(g6854
g119
g3
tp6913
a(g6854
g121
g3
tp6914
a(g6854
g123
g3
tp6915
a(g6854
g125
g3
tp6916
a(g6854
g127
g3
tp6917
a(g6854
g129
g3
tp6918
a(g6854
g131
g3
tp6919
a(g6854
g133
g3
tp6920
a(g6854
g135
g3
tp6921
a(g6854
g137
g3
tp6922
a(g6854
g139
g3
tp6923
a(g6854
g141
g3
tp6924
a(g6854
g143
g3
tp6925
a(g6854
g145
g3
tp6926
a(g6854
g147
g3
tp6927
a(g6854
g149
g3
tp6928
a(g6854
g151
g3
tp6929
a(g6854
g153
g3
tp6930
a(g6854
g155
g3
tp6931
a(g6854
g157
g3
tp6932
a(g6854
g159
g3
tp6933
a(g6854
g161
g3
tp6934
a(g6854
g163
g3
tp6935
a(g6854
g165
g3
tp6936
a(g6854
g167
g3
tp6937
a(g6854
g169
g3
tp6938
a(g6854
g171
g3
tp6939
a(g6854
g173
g3
tp6940
a(g6854
g175
g3
tp6941
a(g6854
g177
g3
tp6942
a(g6854
g179
g3
tp6943
a(g6854
g181
g3
tp6944
a(g6854
g183
g3
tp6945
a(g6854
g185
g3
tp6946
a(g6854
g187
g3
tp6947
a(g6854
g189
g3
tp6948
a(g6854
g191
g3
tp6949
a(g6854
g193
g3
tp6950
a(g6854
g195
g3
tp6951
a(g6854
g197
g3
tp6952
a(g6854
g199
g3
tp6953
a(g6854
g201
g3
tp6954
a(g6854
g203
g3
tp6955
a(g6854
g205
g3
tp6956
a(g6854
g207
g3
tp6957
a(g6854
g209
g3
tp6958
a(g6854
g211
g3
tp6959
a(g6854
g213
g3
tp6960
a(g6854
g215
g3
tp6961
a(g6854
g217
g3
tp6962
a(g6854
g219
g3
tp6963
a(g6854
g221
g3
tp6964
a(g6854
g223
g3
tp6965
a(g6854
g225
g3
tp6966
a(g6854
g227
g3
tp6967
a(g6854
g229
g3
tp6968
a(g6854
g231
g3
tp6969
a(g6854
g233
g3
tp6970
a(g6854
g235
g3
tp6971
a(g6854
g237
g3
tp6972
a(g6854
g239
g3
tp6973
a(g6854
g241
g3
tp6974
a(g6854
g243
g3
tp6975
a(g6854
g245
g3
tp6976
a(g6854
g247
g3
tp6977
a(g6854
g249
g3
tp6978
a(g6854
g251
g3
tp6979
a(g6854
g253
g3
tp6980
a(g6854
g255
g3
tp6981
a(g6854
g257
g3
tp6982
a(g6854
g259
g3
tp6983
a(g6854
g261
g3
tp6984
a(g6854
g263
g3
tp6985
a(g6854
g265
g3
tp6986
a(g6854
g267
g3
tp6987
a(g6854
g269
g3
tp6988
a(g6854
g271
g3
tp6989
a(g6854
g273
g3
tp6990
a(g6854
g275
g3
tp6991
a(g6854
g277
g3
tp6992
a(g6854
g279
g3
tp6993
a(g6854
g281
g3
tp6994
a(g6854
g283
g3
tp6995
a(g6854
g285
g3
tp6996
a(g6854
g287
g3
tp6997
a(g6854
g289
g3
tp6998
a(g6854
g291
g3
tp6999
a(g6854
g293
g3
tp7000
a(g6854
g295
g3
tp7001
a(g6854
g297
g3
tp7002
a(g6854
g299
g3
tp7003
a(g6854
g301
g3
tp7004
a(g6854
g303
g3
tp7005
a(g6854
g305
g3
tp7006
a(g6854
g307
g3
tp7007
a(g6854
g309
g3
tp7008
a(g6854
g311
g3
tp7009
a(g6854
g313
g3
tp7010
a(g6854
g315
g3
tp7011
a(g6854
g317
g3
tp7012
a(g6854
g319
g3
tp7013
a(g6854
g321
g3
tp7014
a(g6854
g323
g3
tp7015
a(g6854
g325
g3
tp7016
a(g6854
g327
g3
tp7017
a(g6854
g329
g3
tp7018
a(g6854
g331
g3
tp7019
a(g6854
g333
g3
tp7020
a(g6854
g335
g3
tp7021
a(g6854
g337
g3
tp7022
a(g6854
g339
g3
tp7023
a(g6854
g341
g3
tp7024
a(g6854
g343
g3
tp7025
a(g6854
g345
g3
tp7026
a(g6854
g347
g3
tp7027
a(g6854
g349
g3
tp7028
a(g6854
g351
g3
tp7029
a(g6854
g353
g3
tp7030
a(g6854
g355
g3
tp7031
a(g6854
g357
g3
tp7032
a(g6854
g359
g3
tp7033
a(g6854
g361
g3
tp7034
a(g6854
g363
g3
tp7035
a(g6854
g365
g3
tp7036
a(g6854
g367
g3
tp7037
a(g6854
g369
g3
tp7038
a(g6854
g371
g3
tp7039
a(g6854
g373
g3
tp7040
a(g6854
g375
g3
tp7041
a(g6854
g377
g3
tp7042
a(g6854
g379
g3
tp7043
a(g6854
g381
g3
tp7044
a(g6854
g383
g3
tp7045
a(g6854
g385
g3
tp7046
a(g6854
g387
g3
tp7047
a(g6854
g389
g3
tp7048
a(g6854
g391
g3
tp7049
a(g6854
g393
g3
tp7050
a(g6854
g395
g3
tp7051
a(g6854
g397
g3
tp7052
a(g6854
g399
g3
tp7053
a(g6854
g401
g3
tp7054
a(g6854
g403
g3
tp7055
a(g6854
g405
g3
tp7056
a(g6854
g407
g3
tp7057
a(g6854
g409
g3
tp7058
a(g6854
g411
g3
tp7059
a(g6854
g413
g3
tp7060
a(g6854
g415
g3
tp7061
a(g6854
g417
g3
tp7062
a(g6854
g419
g3
tp7063
a(g6854
g421
g3
tp7064
a(g6854
g423
g3
tp7065
a(g6854
g425
g3
tp7066
a(g6854
g427
g3
tp7067
a(g6854
g429
g3
tp7068
a(g6854
g431
g3
tp7069
a(g6854
g433
g3
tp7070
a(g6854
g435
g3
tp7071
a(g6854
g437
g3
tp7072
a(g6854
g439
g3
tp7073
a(g6854
g441
g3
tp7074
a(g6854
g443
g3
tp7075
a(g6854
g445
g3
tp7076
a(g6854
g447
g3
tp7077
a(g6854
g449
g3
tp7078
a(g6854
g451
g3
tp7079
a(g6854
g453
g3
tp7080
a(g6854
g455
g3
tp7081
a(g6854
g457
g3
tp7082
a(g6854
g459
g3
tp7083
a(g6854
g461
g3
tp7084
a(g6854
g463
g3
tp7085
a(g6854
g465
g3
tp7086
a(g6854
g467
g3
tp7087
a(g6854
g469
g3
tp7088
a(g6854
g471
g3
tp7089
a(g6854
g473
g3
tp7090
a(g6854
g475
g3
tp7091
a(g6854
g477
g3
tp7092
a(g6854
g479
g3
tp7093
a(g6854
g481
g3
tp7094
a(g6854
g483
g3
tp7095
a(g6854
g485
g3
tp7096
a(g6854
g487
g3
tp7097
a(g6854
g489
g3
tp7098
a(g6854
g491
g3
tp7099
a(g6854
g493
g3
tp7100
a(g6854
g495
g3
tp7101
a(g6854
g497
g3
tp7102
a(g6854
g499
g3
tp7103
a(g6854
g501
g3
tp7104
a(g6854
g503
g3
tp7105
a(g6854
g505
g3
tp7106
a(g6854
g507
g3
tp7107
a(g6854
g509
g3
tp7108
a(g6854
g511
g3
tp7109
a(g6854
g513
g3
tp7110
a(g6854
g515
g3
tp7111
a(g6854
g517
g3
tp7112
a(g6854
g519
g3
tp7113
a(g6854
g521
g3
tp7114
a(g6854
g523
g3
tp7115
a(g6854
g525
g3
tp7116
a(g6854
g527
g3
tp7117
a(g6854
g529
g3
tp7118
a(g6854
g531
g3
tp7119
a(g6854
g533
g3
tp7120
a(g6854
g535
g3
tp7121
a(g6854
g537
g3
tp7122
a(g6854
g539
g3
tp7123
a(g6854
g541
g3
tp7124
a(g6854
g543
g3
tp7125
a(g6854
g545
g3
tp7126
a(g6854
g547
g3
tp7127
a(g6854
g549
g3
tp7128
a(g6854
g551
g3
tp7129
a(g6854
g553
g3
tp7130
a(g6854
g555
g3
tp7131
a(g6854
g557
g3
tp7132
a(g6854
g559
g3
tp7133
a(g6854
g561
g3
tp7134
a(g6854
g563
g3
tp7135
a(g6854
g565
g3
tp7136
a(g6854
g567
g3
tp7137
a(g6854
g569
g3
tp7138
a(g6854
g571
g3
tp7139
a(g6854
g573
g3
tp7140
a(g6854
g575
g3
tp7141
a(g6854
g577
g3
tp7142
a(g6854
g579
g3
tp7143
a(g6854
g581
g3
tp7144
a(g6854
g583
g3
tp7145
a(g6854
g585
g3
tp7146
a(g6854
g587
g3
tp7147
a(g6854
g589
g3
tp7148
a(g6854
g591
g3
tp7149
a(g6854
g593
g3
tp7150
a(g6854
g595
g3
tp7151
a(g6854
g597
g3
tp7152
a(g6854
g599
g3
tp7153
a(g6854
g601
g3
tp7154
a(g6854
g603
g3
tp7155
a(g6854
g605
g3
tp7156
a(g6854
g607
g3
tp7157
a(g6854
g609
g3
tp7158
a(g6854
g611
g3
tp7159
a(g6854
g613
g3
tp7160
a(g6854
g615
g3
tp7161
a(g6854
g617
g3
tp7162
a(g6854
g619
g3
tp7163
a(g6854
g621
g3
tp7164
a(g6854
g623
g3
tp7165
a(g6854
g625
g3
tp7166
a(g6854
g627
g3
tp7167
a(g6854
g629
g3
tp7168
a(g6854
g631
g3
tp7169
a(g6854
g633
g3
tp7170
a(g6854
g635
g3
tp7171
a(g6854
g637
g3
tp7172
a(g6854
g639
g3
tp7173
a(g6854
g641
g3
tp7174
a(g6854
g643
g3
tp7175
a(g6854
g645
g3
tp7176
a(g6854
g647
g3
tp7177
a(g6854
g649
g3
tp7178
a(g6854
g651
g3
tp7179
a(g6854
g653
g3
tp7180
a(g6854
g655
g3
tp7181
a(g6854
g657
g3
tp7182
a(g6854
g659
g3
tp7183
a(g6854
g661
g3
tp7184
a(g6854
g663
g3
tp7185
a(g6854
g665
g3
tp7186
a(g6854
g667
g3
tp7187
a(g6854
g669
g3
tp7188
a(g6854
g671
g3
tp7189
a(g6854
g673
g3
tp7190
a(g6854
g675
g3
tp7191
a(g6854
g677
g3
tp7192
a(g6854
g679
g3
tp7193
a(g6854
g681
g3
tp7194
a(g6854
g683
g3
tp7195
a(g6854
g685
g3
tp7196
a(g6854
g687
g3
tp7197
a(g6854
g689
g3
tp7198
a(g6854
g691
g3
tp7199
a(g6854
g693
g3
tp7200
a(g6854
g695
g3
tp7201
a(g6854
g697
g3
tp7202
a(g6854
g699
g3
tp7203
a(g6854
g701
g3
tp7204
a(g6854
g703
g3
tp7205
a(g6854
g705
g3
tp7206
a(g6854
g707
g3
tp7207
a(g6854
g709
g3
tp7208
a(g6854
g711
g3
tp7209
a(g6854
g713
g3
tp7210
a(g6854
g715
g3
tp7211
a(g6854
g717
g3
tp7212
a(g6854
g719
g3
tp7213
a(g6854
g721
g3
tp7214
a(g6854
g723
g3
tp7215
a(g6854
g725
g3
tp7216
a(g6854
g727
g3
tp7217
a(g6854
g729
g3
tp7218
a(g6854
g731
g3
tp7219
a(g6854
g733
g3
tp7220
a(g6854
g735
g3
tp7221
a(g6854
g737
g3
tp7222
a(g6854
g739
g3
tp7223
a(g6854
g741
g3
tp7224
a(g6854
g743
g3
tp7225
a(g6854
g745
g3
tp7226
a(g6854
g747
g3
tp7227
a(g6854
g749
g3
tp7228
a(g6854
g751
g3
tp7229
a(g6854
g753
g3
tp7230
a(g6854
g755
g3
tp7231
a(g6854
g757
g3
tp7232
a(g6854
g759
g3
tp7233
a(g6854
g761
g3
tp7234
a(g6854
g763
g3
tp7235
a(g6854
g765
g3
tp7236
a(g6854
g767
g3
tp7237
a(g6854
g769
g3
tp7238
a(g6854
g771
g3
tp7239
a(g6854
g773
g3
tp7240
a(g6854
g775
g3
tp7241
a(g6854
g777
g3
tp7242
a(g6854
g779
g3
tp7243
a(g6854
g781
g3
tp7244
a(g6854
g783
g3
tp7245
a(g6854
g785
g3
tp7246
a(g6854
g787
g3
tp7247
a(g6854
g789
g3
tp7248
a(g6854
g791
g3
tp7249
a(g6854
g793
g3
tp7250
a(g6854
g795
g3
tp7251
a(g6854
g797
g3
tp7252
a(g6854
g799
g3
tp7253
a(g6854
g801
g3
tp7254
a(g6854
g803
g3
tp7255
a(g6854
g805
g3
tp7256
a(g6854
g807
g3
tp7257
a(g6854
g809
g3
tp7258
a(g6854
g811
g3
tp7259
a(g6854
g813
g3
tp7260
a(g6854
g815
g3
tp7261
a(g6854
g817
g3
tp7262
a(g6854
g819
g3
tp7263
a(g6854
g821
g3
tp7264
a(g6854
g823
g3
tp7265
a(g6854
g825
g3
tp7266
a(g6854
g827
g3
tp7267
a(g6854
g829
g3
tp7268
a(g6854
g831
g3
tp7269
a(g6854
g833
g3
tp7270
a(g6854
g835
g3
tp7271
a(g6854
g837
g3
tp7272
a(g6854
g839
g3
tp7273
a(g6854
g841
g3
tp7274
a(g6854
g843
g3
tp7275
a(g6854
g845
g3
tp7276
a(g6854
g847
g3
tp7277
a(g6854
g849
g3
tp7278
a(g6854
g851
g3
tp7279
a(g6854
g853
g3
tp7280
a(g6854
g855
g3
tp7281
a(g6854
g857
g3
tp7282
a(g6854
g859
g3
tp7283
a(g6854
g861
g3
tp7284
a(g6854
g863
g3
tp7285
a(g6854
g865
g3
tp7286
a(g6854
g867
g3
tp7287
a(g6854
g869
g3
tp7288
a(g6854
g871
g3
tp7289
a(g6854
g873
g3
tp7290
a(g6854
g875
g3
tp7291
a(g6854
g877
g3
tp7292
a(g6854
g879
g3
tp7293
a(g6854
g881
g3
tp7294
a(g6854
g883
g3
tp7295
a(g6854
g885
g3
tp7296
a(g6854
g887
g3
tp7297
a(g6854
g889
g3
tp7298
a(g6854
g891
g3
tp7299
a(g6854
g893
g3
tp7300
a(g6854
g895
g3
tp7301
a(g6854
g897
g3
tp7302
a(g6854
g899
g3
tp7303
a(g6854
g901
g3
tp7304
a(g6854
g903
g3
tp7305
a(g6854
g905
g3
tp7306
a(g6854
g907
g3
tp7307
a(g6854
g909
g3
tp7308
a(g6854
g911
g3
tp7309
a(g6854
g913
g3
tp7310
a(g6854
g915
g3
tp7311
a(g6854
g917
g3
tp7312
a(g6854
g919
g3
tp7313
a(g6854
g921
g3
tp7314
a(g6854
g923
g3
tp7315
a(g6854
g925
g3
tp7316
a(g6854
g927
g3
tp7317
a(g6854
g929
g3
tp7318
a(g6854
g931
g3
tp7319
a(g6854
g933
g3
tp7320
a(g6854
g935
g3
tp7321
a(g6854
g937
g3
tp7322
a(g6854
g939
g3
tp7323
a(g6854
g941
g3
tp7324
a(g6854
g943
g3
tp7325
a(g6854
g945
g3
tp7326
a(g6854
g947
g3
tp7327
a(g6854
g949
g3
tp7328
a(g6854
g951
g3
tp7329
a(g6854
g953
g3
tp7330
a(g6854
g955
g3
tp7331
a(g6854
g957
g3
tp7332
a(g6854
g959
g3
tp7333
a(g6854
g961
g3
tp7334
a(g6854
g963
g3
tp7335
a(g6854
g965
g3
tp7336
a(g6854
g967
g3
tp7337
a(g6854
g969
g3
tp7338
a(g6854
g971
g3
tp7339
a(g6854
g973
g3
tp7340
a(g6854
g975
g3
tp7341
a(g6854
g977
g3
tp7342
a(g6854
g979
g3
tp7343
a(g6854
g981
g3
tp7344
a(g6854
g983
g3
tp7345
a(g6854
g985
g3
tp7346
a(g6854
g987
g3
tp7347
a(g6854
g989
g3
tp7348
a(g6854
g991
g3
tp7349
a(g6854
g993
g3
tp7350
a(g6854
g995
g3
tp7351
a(g6854
g997
g3
tp7352
a(g6854
g999
g3
tp7353
a(g6854
g1001
g3
tp7354
a(g6854
g1003
g3
tp7355
a(g6854
g1005
g3
tp7356
a(g6854
g1007
g3
tp7357
a(g6854
g1009
g3
tp7358
a(g6854
g1011
g3
tp7359
a(g6854
g1013
g3
tp7360
a(g6854
g1015
g3
tp7361
a(g6854
g1017
g3
tp7362
a(g6854
g1019
g3
tp7363
a(g6854
g1021
g3
tp7364
a(g6854
g1023
g3
tp7365
a(g6854
g1025
g3
tp7366
a(g6854
g1027
g3
tp7367
a(g6854
g1029
g3
tp7368
a(g6854
g1031
g3
tp7369
a(g6854
g1033
g3
tp7370
a(g6854
g1035
g3
tp7371
a(g6854
g1037
g3
tp7372
a(g6854
g1039
g3
tp7373
a(g6854
g1041
g3
tp7374
a(g6854
g1043
g3
tp7375
a(g6854
g1045
g3
tp7376
a(g6854
g1047
g3
tp7377
a(g6854
g1049
g3
tp7378
a(g6854
g1051
g3
tp7379
a(g6854
g1053
g3
tp7380
a(g6854
g1055
g3
tp7381
a(g6854
g1057
g3
tp7382
a(g6854
g1059
g3
tp7383
a(g6854
g1061
g3
tp7384
a(g6854
g1063
g3
tp7385
a(g6854
g1065
g3
tp7386
a(g6854
g1067
g3
tp7387
a(g6854
g1069
g3
tp7388
a(g6854
g1071
g3
tp7389
a(g6854
g1073
g3
tp7390
a(g6854
g1075
g3
tp7391
a(g6854
g1077
g3
tp7392
a(g6854
g1079
g3
tp7393
a(g6854
g1081
g3
tp7394
a(g6854
g1083
g3
tp7395
a(g6854
g1085
g3
tp7396
a(g6854
g1087
g3
tp7397
a(g6854
g1089
g3
tp7398
a(g6854
g1091
g3
tp7399
a(g6854
g1093
g3
tp7400
a(g6854
g1095
g3
tp7401
a(g6854
g1097
g3
tp7402
a(g6854
g1099
g3
tp7403
a(g6854
g1101
g3
tp7404
a(g6854
g1103
g3
tp7405
a(g6854
g1105
g3
tp7406
a(g6854
g1107
g3
tp7407
a(g6854
g1109
g3
tp7408
a(g6854
g1111
g3
tp7409
a(g6854
g1113
g3
tp7410
a(g6854
g1115
g3
tp7411
a(g6854
g1117
g3
tp7412
a(g6854
g1119
g3
tp7413
a(g6854
g1121
g3
tp7414
a(g6854
g1123
g3
tp7415
a(g6854
g1125
g3
tp7416
a(g6854
g1127
g3
tp7417
a(g6854
g1129
g3
tp7418
a(g6854
g1131
g3
tp7419
a(g6854
g1133
g3
tp7420
a(g6854
g1135
g3
tp7421
a(g6854
g1137
g3
tp7422
a(g6854
g1139
g3
tp7423
a(g6854
g1141
g3
tp7424
a(g6854
g1143
g3
tp7425
a(g6854
g1145
g3
tp7426
a(g6854
g1147
g3
tp7427
a(g6854
g1149
g3
tp7428
a(g6854
g1151
g3
tp7429
a(g6854
g1153
g3
tp7430
a(g6854
g1155
g3
tp7431
a(g6854
g1157
g3
tp7432
a(g6854
g1159
g3
tp7433
a(g6854
g1161
g3
tp7434
a(g6854
g1163
g3
tp7435
a(g6854
g1165
g3
tp7436
a(g6854
g1167
g3
tp7437
a(g6854
g1169
g3
tp7438
a(g6854
g1171
g3
tp7439
a(g6854
g1173
g3
tp7440
a(g6854
g1175
g3
tp7441
a(g6854
g1177
g3
tp7442
a(g6854
g1179
g3
tp7443
a(g6854
g1181
g3
tp7444
a(g6854
g1183
g3
tp7445
a(g6854
g1185
g3
tp7446
a(g6854
g1187
g3
tp7447
a(g6854
g1189
g3
tp7448
a(g6854
g1191
g3
tp7449
a(g6854
g1193
g3
tp7450
a(g6854
g1195
g3
tp7451
a(g6854
g1197
g3
tp7452
a(g6854
g1199
g3
tp7453
a(g6854
g1201
g3
tp7454
a(g6854
g1203
g3
tp7455
a(g6854
g1205
g3
tp7456
a(g6854
g1207
g3
tp7457
a(g6854
g1209
g3
tp7458
a(g6854
g1211
g3
tp7459
a(g6854
g1213
g3
tp7460
a(g6854
g1215
g3
tp7461
a(g6854
g1217
g3
tp7462
a(g6854
g1219
g3
tp7463
a(g6854
g1221
g3
tp7464
a(g6854
g1223
g3
tp7465
a(g6854
g1225
g3
tp7466
a(g6854
g1227
g3
tp7467
a(g6854
g1229
g3
tp7468
a(g6854
g1231
g3
tp7469
a(g6854
g1233
g3
tp7470
a(g6854
g1235
g3
tp7471
a(g6854
g1237
g3
tp7472
a(g6854
g1239
g3
tp7473
a(g6854
g1241
g3
tp7474
a(g6854
g1243
g3
tp7475
a(g6854
g1245
g3
tp7476
a(g6854
g1247
g3
tp7477
a(g6854
g1249
g3
tp7478
a(g6854
g1251
g3
tp7479
a(g6854
g1253
g3
tp7480
a(g6854
g1255
g3
tp7481
a(g6854
g1257
g3
tp7482
a(g6854
g1259
g3
tp7483
a(g6854
g1261
g3
tp7484
a(g6854
g1263
g3
tp7485
a(g6854
g1265
g3
tp7486
a(g6854
g1267
g3
tp7487
a(g6854
g1269
g3
tp7488
a(g6854
g1271
g3
tp7489
a(g6854
g1273
g3
tp7490
a(g6854
g1275
g3
tp7491
a(g6854
g1277
g3
tp7492
a(g6854
g1279
g3
tp7493
a(g6854
g1281
g3
tp7494
a(g6854
g1283
g3
tp7495
a(g6854
g1285
g3
tp7496
a(g6854
g1287
g3
tp7497
a(g6854
g1289
g3
tp7498
a(g6854
g1291
g3
tp7499
a(g6854
g1293
g3
tp7500
a(g6854
g1295
g3
tp7501
a(g6854
g1297
g3
tp7502
a(g6854
g1299
g3
tp7503
a(g6854
g1301
g3
tp7504
a(g6854
g1303
g3
tp7505
a(g6854
g1305
g3
tp7506
a(g6854
g1307
g3
tp7507
a(g6854
g1309
g3
tp7508
a(g6854
g1311
g3
tp7509
a(g6854
g1313
g3
tp7510
a(g6854
g1315
g3
tp7511
a(g6854
g1317
g3
tp7512
a(g6854
g1319
g3
tp7513
a(g6854
g1321
g3
tp7514
a(g6854
g1323
g3
tp7515
a(g6854
g1325
g3
tp7516
a(g6854
g1327
g3
tp7517
a(g6854
g1329
g3
tp7518
a(g6854
g1331
g3
tp7519
a(g6854
g1333
g3
tp7520
a(g6854
g1335
g3
tp7521
a(g6854
g1337
g3
tp7522
a(g6854
g1339
g3
tp7523
a(g6854
g1341
g3
tp7524
a(g6854
g1343
g3
tp7525
a(g6854
g1345
g3
tp7526
a(g6854
g1347
g3
tp7527
a(g6854
g1349
g3
tp7528
a(g6854
g1351
g3
tp7529
a(g6854
g1353
g3
tp7530
a(g6854
g1355
g3
tp7531
a(g6854
g1357
g3
tp7532
a(g6854
g1359
g3
tp7533
a(g6854
g1361
g3
tp7534
a(g6854
g1363
g3
tp7535
a(g6854
g1365
g3
tp7536
a(g6854
g1367
g3
tp7537
a(g6854
g1369
g3
tp7538
a(g6854
g1371
g3
tp7539
a(g6854
g1373
g3
tp7540
a(g6854
g1375
g3
tp7541
a(g6854
g1377
g3
tp7542
a(g6854
g1379
g3
tp7543
a(g6854
g1381
g3
tp7544
a(g6854
g1383
g3
tp7545
a(g6854
g1385
g3
tp7546
a(g6854
g1387
g3
tp7547
a(g6854
g1389
g3
tp7548
a(g6854
g1391
g3
tp7549
a(g6854
g1393
g3
tp7550
a(g6854
g1395
g3
tp7551
a(g6854
g1397
g3
tp7552
a(g6854
g1399
g3
tp7553
a(g6854
g1401
g3
tp7554
a(g6854
g1403
g3
tp7555
a(g6854
g1405
g3
tp7556
a(g6854
g1407
g3
tp7557
a(g6854
g1409
g3
tp7558
a(g6854
g1411
g3
tp7559
a(g6854
g1413
g3
tp7560
a(g6854
g1415
g3
tp7561
a(g6854
g1417
g3
tp7562
a(g6854
g1419
g3
tp7563
a(g6854
g1421
g3
tp7564
a(g6854
g1423
g3
tp7565
a(g6854
g1425
g3
tp7566
a(g6854
g1427
g3
tp7567
a(g6854
g1429
g3
tp7568
a(g6854
g1431
g3
tp7569
a(g6854
g1433
g3
tp7570
a(g6854
g1435
g3
tp7571
a(g6854
g1437
g3
tp7572
a(g6854
g1439
g3
tp7573
a(g6854
g1441
g3
tp7574
a(g6854
g1443
g3
tp7575
a(g6854
g1445
g3
tp7576
a(g6854
g1447
g3
tp7577
a(g6854
g1449
g3
tp7578
a(g6854
g1451
g3
tp7579
a(g6854
g1453
g3
tp7580
a(g6854
g1455
g3
tp7581
a(g6854
g1457
g3
tp7582
a(g6854
g1459
g3
tp7583
a(g6854
g1461
g3
tp7584
a(g6854
g1463
g3
tp7585
a(g6854
g1465
g3
tp7586
a(g6854
g1467
g3
tp7587
a(g6854
g1469
g3
tp7588
a(g6854
g1471
g3
tp7589
a(g6854
g1473
g3
tp7590
a(g6854
g1475
g3
tp7591
a(g6854
g1477
g3
tp7592
a(g6854
g1479
g3
tp7593
a(g6854
g1481
g3
tp7594
a(g6854
g1483
g3
tp7595
a(g6854
g1485
g3
tp7596
a(g6854
g1487
g3
tp7597
a(g6854
g1489
g3
tp7598
a(g6854
g1491
g3
tp7599
a(g6854
g1493
g3
tp7600
a(g6854
g1495
g3
tp7601
a(g6854
g1497
g3
tp7602
a(g6854
g1499
g3
tp7603
a(g6854
g1501
g3
tp7604
a(g6854
g1503
g3
tp7605
a(g6854
g1505
g3
tp7606
a(g6854
g1507
g3
tp7607
a(g6854
g1509
g3
tp7608
a(g6854
g1511
g3
tp7609
a(g6854
g1513
g3
tp7610
a(g6854
g1515
g3
tp7611
a(g6854
g1517
g3
tp7612
a(g6854
g1519
g3
tp7613
a(g6854
g1521
g3
tp7614
a(g6854
g1523
g3
tp7615
a(g6854
g1525
g3
tp7616
a(g6854
g1527
g3
tp7617
a(g6854
g1529
g3
tp7618
a(g6854
g1531
g3
tp7619
a(g6854
g1533
g3
tp7620
a(g6854
g1535
g3
tp7621
a(g6854
g1537
g3
tp7622
a(g6854
g1539
g3
tp7623
a(g6854
g1541
g3
tp7624
a(g6854
g1543
g3
tp7625
a(g6854
g1545
g3
tp7626
a(g6854
g1547
g3
tp7627
a(g6854
g1549
g3
tp7628
a(g6854
g1551
g3
tp7629
a(g6854
g1553
g3
tp7630
a(g6854
g1555
g3
tp7631
a(g6854
g1557
g3
tp7632
a(g6854
g1559
g3
tp7633
a(g6854
g1561
g3
tp7634
a(g6854
g1563
g3
tp7635
a(g6854
g1565
g3
tp7636
a(g6854
g1567
g3
tp7637
a(g6854
g1569
g3
tp7638
a(g6854
g1571
g3
tp7639
a(g6854
g1573
g3
tp7640
a(g6854
g1575
g3
tp7641
a(g6854
g1577
g3
tp7642
a(g6854
g1579
g3
tp7643
a(g6854
g1581
g3
tp7644
a(g6854
g1583
g3
tp7645
a(g6854
g1585
g3
tp7646
a(g6854
g1587
g3
tp7647
a(g6854
g1589
g3
tp7648
a(g6854
g1591
g3
tp7649
a(g6854
g1593
g3
tp7650
a(g6854
g1595
g3
tp7651
a(g6854
g1597
g3
tp7652
a(g6854
g1599
g3
tp7653
a(g6854
g1601
g3
tp7654
a(g6854
g1603
g3
tp7655
a(g6854
g1605
g3
tp7656
a(g6854
g1607
g3
tp7657
a(g6854
g1609
g3
tp7658
a(g6854
g1611
g3
tp7659
a(g6854
g1613
g3
tp7660
a(g6854
g1615
g3
tp7661
a(g6854
g1617
g3
tp7662
a(g6854
g1619
g3
tp7663
a(g6854
g1621
g3
tp7664
a(g6854
g1623
g3
tp7665
a(g6854
g1625
g3
tp7666
a(g6854
g1627
g3
tp7667
a(g6854
g1629
g3
tp7668
a(g6854
g1631
g3
tp7669
a(g6854
g1633
g3
tp7670
a(g6854
g1635
g3
tp7671
a(g6854
g1637
g3
tp7672
a(g6854
g1639
g3
tp7673
a(g6854
g1641
g3
tp7674
a(g6854
g1643
g3
tp7675
a(g6854
g1645
g3
tp7676
a(g6854
g1647
g3
tp7677
a(g6854
g1649
g3
tp7678
a(g6854
g1651
g3
tp7679
a(g6854
g1653
g3
tp7680
a(g6854
g1655
g3
tp7681
a(g6854
g1657
g3
tp7682
a(g6854
g1659
g3
tp7683
a(g6854
g1661
g3
tp7684
a(g6854
g1663
g3
tp7685
a(g6854
g1665
g3
tp7686
a(g6854
g1667
g3
tp7687
a(g6854
g1669
g3
tp7688
a(g6854
g1671
g3
tp7689
a(g6854
g1673
g3
tp7690
a(g6854
g1675
g3
tp7691
a(g6854
g1677
g3
tp7692
a(g6854
g1679
g3
tp7693
a(g6854
g1681
g3
tp7694
a(g6854
g1683
g3
tp7695
a(g6854
g1685
g3
tp7696
a(g6854
g1687
g3
tp7697
a(g6854
g1689
g3
tp7698
a(g6854
g1691
g3
tp7699
a(g6854
g1693
g3
tp7700
a(g6854
g1695
g3
tp7701
a(g6854
g1697
g3
tp7702
a(g6854
g1699
g3
tp7703
a(g6854
g1701
g3
tp7704
a(g6854
g1703
g3
tp7705
a(g6854
g1705
g3
tp7706
a(g6854
g1707
g3
tp7707
a(g6854
g1709
g3
tp7708
a(g6854
g1711
g3
tp7709
a(g6854
g1713
g3
tp7710
a(g6854
g1715
g3
tp7711
a(g6854
g1717
g3
tp7712
a(g6854
g1719
g3
tp7713
a(g6854
g1721
g3
tp7714
a(g6854
g1723
g3
tp7715
a(g6854
g1725
g3
tp7716
a(g6854
g1727
g3
tp7717
a(g6854
g1729
g3
tp7718
a(g6854
g1731
g3
tp7719
a(g6854
g1733
g3
tp7720
a(g6854
g1735
g3
tp7721
a(g6854
g1737
g3
tp7722
a(g6854
g1739
g3
tp7723
a(g6854
g1741
g3
tp7724
a(g6854
g1743
g3
tp7725
a(g6854
g1745
g3
tp7726
a(g6854
g1747
g3
tp7727
a(g6854
g1749
g3
tp7728
a(g6854
g1751
g3
tp7729
a(g6854
g1753
g3
tp7730
a(g6854
g1755
g3
tp7731
a(g6854
g1757
g3
tp7732
a(g6854
g1759
g3
tp7733
a(g6854
g1761
g3
tp7734
a(g6854
g1763
g3
tp7735
a(g6854
g1765
g3
tp7736
a(g6854
g1767
g3
tp7737
a(g6854
g1769
g3
tp7738
a(g6854
g1771
g3
tp7739
a(g6854
g1773
g3
tp7740
a(g6854
g1775
g3
tp7741
a(g6854
g1777
g3
tp7742
a(g6854
g1779
g3
tp7743
a(g6854
g1781
g3
tp7744
a(g6854
g1783
g3
tp7745
a(g6854
g1785
g3
tp7746
a(g6854
g1787
g3
tp7747
a(g6854
g1789
g3
tp7748
a(g6854
g1791
g3
tp7749
a(g6854
g1793
g3
tp7750
a(g6854
g1795
g3
tp7751
a(g6854
g1797
g3
tp7752
a(g6854
g1799
g3
tp7753
a(g6854
g1801
g3
tp7754
a(g6854
g1803
g3
tp7755
a(g6854
g1805
g3
tp7756
a(g6854
g1807
g3
tp7757
a(g6854
g1809
g3
tp7758
a(g6854
g1811
g3
tp7759
a(g6854
g1813
g3
tp7760
a(g6854
g1815
g3
tp7761
a(g6854
g1817
g3
tp7762
a(g6854
g1819
g3
tp7763
a(g6854
g1821
g3
tp7764
a(g6854
g1823
g3
tp7765
a(g6854
g1825
g3
tp7766
a(g6854
g1827
g3
tp7767
a(g6854
g1829
g3
tp7768
a(g6854
g1831
g3
tp7769
a(g6854
g1833
g3
tp7770
a(g6854
g1835
g3
tp7771
a(g6854
g1837
g3
tp7772
a(g6854
g1839
g3
tp7773
a(g6854
g1841
g3
tp7774
a(g6854
g1843
g3
tp7775
a(g6854
g1845
g3
tp7776
a(g6854
g1847
g3
tp7777
a(g6854
g1849
g3
tp7778
a(g6854
g1851
g3
tp7779
a(g6854
g1853
g3
tp7780
a(g6854
g1855
g3
tp7781
a(g6854
g1857
g3
tp7782
a(g6854
g1859
g3
tp7783
a(g6854
g1861
g3
tp7784
a(g6854
g1863
g3
tp7785
a(g6854
g1865
g3
tp7786
a(g6854
g1867
g3
tp7787
a(g6854
g1869
g3
tp7788
a(g6854
g1871
g3
tp7789
a(g6854
g1873
g3
tp7790
a(g6854
g1875
g3
tp7791
a(g6854
g1877
g3
tp7792
a(g6854
g1879
g3
tp7793
a(g6854
g1881
g3
tp7794
a(g6854
g1883
g3
tp7795
a(g6854
g1885
g3
tp7796
a(g6854
g1887
g3
tp7797
a(g6854
g1889
g3
tp7798
a(g6854
g1891
g3
tp7799
a(g6854
g1893
g3
tp7800
a(g6854
g1895
g3
tp7801
a(g6854
g1897
g3
tp7802
a(g6854
g1899
g3
tp7803
a(g6854
g1901
g3
tp7804
a(g6854
g1903
g3
tp7805
a(g6854
g1905
g3
tp7806
a(g6854
g1907
g3
tp7807
a(g6854
g1909
g3
tp7808
a(g6854
g1911
g3
tp7809
a(g6854
g1913
g3
tp7810
a(g6854
g1915
g3
tp7811
a(g6854
g1917
g3
tp7812
a(g6854
g1919
g3
tp7813
a(g6854
g1921
g3
tp7814
a(g6854
g1923
g3
tp7815
a(g6854
g1925
g3
tp7816
a(g6854
g1927
g3
tp7817
a(g6854
g1929
g3
tp7818
a(g6854
g1931
g3
tp7819
a(g6854
g1933
g3
tp7820
a(g6854
g1935
g3
tp7821
a(g6854
g1937
g3
tp7822
a(g6854
g1939
g3
tp7823
a(g6854
g1941
g3
tp7824
a(g6854
g1943
g3
tp7825
a(g6854
g1945
g3
tp7826
a(g6854
g1947
g3
tp7827
a(g6854
g1949
g3
tp7828
a(g6854
g1951
g3
tp7829
a(g6854
g1953
g3
tp7830
a(g6854
g1955
g3
tp7831
a(g6854
g1957
g3
tp7832
a.