(lp0
(S'A549'
p1
S'PSME1'
p2
S'0.04'
p3
tp4
a(g1
S'CISD1'
p5
g3
tp6
a(g1
S'VDAC1'
p7
g3
tp8
a(g1
S'SORBS3'
p9
g3
tp10
a(g1
S'SPDEF'
p11
g3
tp12
a(g1
S'ATF1'
p13
g3
tp14
a(g1
S'SPAG4'
p15
g3
tp16
a(g1
S'E2F2'
p17
g3
tp18
a(g1
S'RHEB'
p19
g3
tp20
a(g1
S'IGF1R'
p21
g3
tp22
a(g1
S'SLC5A6'
p23
g3
tp24
a(g1
S'FOXO3'
p25
g3
tp26
a(g1
S'RGS2'
p27
g3
tp28
a(g1
S'GSTM2'
p29
g3
tp30
a(g1
S'SCYL3'
p31
g3
tp32
a(g1
S'RHOA'
p33
g3
tp34
a(g1
S'TBX2'
p35
g3
tp36
a(g1
S'DNAJA3'
p37
g3
tp38
a(g1
S'IL1B'
p39
g3
tp40
a(g1
S'ASAH1'
p41
g3
tp42
a(g1
S'DCUN1D4'
p43
g3
tp44
a(g1
S'DYRK3'
p45
g3
tp46
a(g1
S'RALA'
p47
g3
tp48
a(g1
S'ARHGEF12'
p49
g3
tp50
a(g1
S'POLG2'
p51
g3
tp52
a(g1
S'SOX2'
p53
g3
tp54
a(g1
S'TRAPPC3'
p55
g3
tp56
a(g1
S'SERPINE1'
p57
g3
tp58
a(g1
S'TCFL5'
p59
g3
tp60
a(g1
S'CRK'
p61
g3
tp62
a(g1
S'HLA-DMA'
p63
g3
tp64
a(g1
S'EGF'
p65
g3
tp66
a(g1
S'RBM34'
p67
g3
tp68
a(g1
S'ITGB1BP1'
p69
g3
tp70
a(g1
S'SPTLC2'
p71
g3
tp72
a(g1
S'ACLY'
p73
g3
tp74
a(g1
S'APP'
p75
g3
tp76
a(g1
S'RAD51C'
p77
g3
tp78
a(g1
S'TSKU'
p79
g3
tp80
a(g1
S'SMC1A'
p81
g3
tp82
a(g1
S'TMEM2'
p83
g3
tp84
a(g1
S'NOS3'
p85
g3
tp86
a(g1
S'YME1L1'
p87
g3
tp88
a(g1
S'ACAA1'
p89
g3
tp90
a(g1
S'CSNK1A1'
p91
g3
tp92
a(g1
S'HSPA8'
p93
g3
tp94
a(g1
S'NFATC4'
p95
g3
tp96
a(g1
S'CCNB1'
p97
g3
tp98
a(g1
S'TBP'
p99
g3
tp100
a(g1
S'SLC2A6'
p101
g3
tp102
a(g1
S'WFS1'
p103
g3
tp104
a(g1
S'EZH2'
p105
g3
tp106
a(g1
S'UBE3B'
p107
g3
tp108
a(g1
S'ICAM3'
p109
g3
tp110
a(g1
S'NPDC1'
p111
g3
tp112
a(g1
S'ALDH7A1'
p113
g3
tp114
a(g1
S'BRCA1'
p115
g3
tp116
a(g1
S'NFATC3'
p117
g3
tp118
a(g1
S'PSMD4'
p119
g3
tp120
a(g1
S'PCNA'
p121
g3
tp122
a(g1
S'PHKG2'
p123
g3
tp124
a(g1
S'ETV1'
p125
g3
tp126
a(g1
S'POLR2I'
p127
g3
tp128
a(g1
S'KDM5B'
p129
g3
tp130
a(g1
S'PSMB8'
p131
g3
tp132
a(g1
S'AKAP8L'
p133
g3
tp134
a(g1
S'COG4'
p135
g3
tp136
a(g1
S'MCM3'
p137
g3
tp138
a(g1
S'PLEKHJ1'
p139
g3
tp140
a(g1
S'HAT1'
p141
g3
tp142
a(g1
S'TERT'
p143
g3
tp144
a(g1
S'G3BP1'
p145
g3
tp146
a(g1
S'SNX13'
p147
g3
tp148
a(g1
S'PAK4'
p149
g3
tp150
a(g1
S'TPD52L2'
p151
g3
tp152
a(g1
S'DPH2'
p153
g3
tp154
a(g1
S'PIH1D1'
p155
g3
tp156
a(g1
S'PRKCQ'
p157
g3
tp158
a(g1
S'SNX6'
p159
g3
tp160
a(g1
S'EED'
p161
g3
tp162
a(g1
S'SHB'
p163
g3
tp164
a(g1
S'UTP14A'
p165
g3
tp166
a(g1
S'WIPF2'
p167
g3
tp168
a(g1
S'NENF'
p169
g3
tp170
a(g1
S'TSEN2'
p171
g3
tp172
a(g1
S'RPN1'
p173
g3
tp174
a(g1
S'SUV39H1'
p175
g3
tp176
a(g1
S'C2CD2L'
p177
g3
tp178
a(g1
S'LYPLA1'
p179
g3
tp180
a(g1
S'BIRC2'
p181
g3
tp182
a(g1
S'GABPB1'
p183
g3
tp184
a(g1
S'MAP2K5'
p185
g3
tp186
a(g1
S'POLR2K'
p187
g3
tp188
a(g1
S'PTK2B'
p189
g3
tp190
a(g1
S'PUF60'
p191
g3
tp192
a(g1
S'DHRS7'
p193
g3
tp194
a(g1
S'PAF1'
p195
g3
tp196
a(g1
S'ARID5B'
p197
g3
tp198
a(g1
S'POLR1C'
p199
g3
tp200
a(g1
S'PAK1'
p201
g3
tp202
a(g1
S'RUVBL1'
p203
g3
tp204
a(g1
S'AKT1'
p205
g3
tp206
a(g1
S'CDC42'
p207
g3
tp208
a(g1
S'IGHMBP2'
p209
g3
tp210
a(g1
S'SENP6'
p211
g3
tp212
a(g1
S'ADO'
p213
g3
tp214
a(g1
S'HSPB1'
p215
g3
tp216
a(g1
S'EBP'
p217
g3
tp218
a(g1
S'TCTN1'
p219
g3
tp220
a(g1
S'AKR7A2'
p221
g3
tp222
a(g1
S'CASK'
p223
g3
tp224
a(g1
S'PPP2R5E'
p225
g3
tp226
a(g1
S'RRP8'
p227
g3
tp228
a(g1
S'LAMA3'
p229
g3
tp230
a(g1
S'PIK3C3'
p231
g3
tp232
a(g1
S'BHLHE40'
p233
g3
tp234
a(g1
S'CCNE2'
p235
g3
tp236
a(g1
S'BDH1'
p237
g3
tp238
a(g1
S'FEZ2'
p239
g3
tp240
a(g1
S'IKBKAP'
p241
g3
tp242
a(g1
S'SH3BP5'
p243
g3
tp244
a(g1
S'PPP2R5A'
p245
g3
tp246
a(g1
S'SGCB'
p247
g3
tp248
a(g1
S'EML3'
p249
g3
tp250
a(g1
S'ENOPH1'
p251
g3
tp252
a(g1
S'BIRC5'
p253
g3
tp254
a(g1
S'CNOT4'
p255
g3
tp256
a(g1
S'EPRS'
p257
g3
tp258
a(g1
S'SNAP25'
p259
g3
tp260
a(g1
S'JMJD6'
p261
g3
tp262
a(g1
S'PAX8'
p263
g3
tp264
a(g1
S'CBLB'
p265
g3
tp266
a(g1
S'SLC35F2'
p267
g3
tp268
a(g1
S'ANO10'
p269
g3
tp270
a(g1
S'PDS5A'
p271
g3
tp272
a(g1
S'DFFB'
p273
g3
tp274
a(g1
S'STUB1'
p275
g3
tp276
a(g1
S'PGAM1'
p277
g3
tp278
a(g1
S'TGFB3'
p279
g3
tp280
a(g1
S'BAD'
p281
g3
tp282
a(g1
S'XBP1'
p283
g3
tp284
a(g1
S'NMT1'
p285
g3
tp286
a(g1
S'PSMD10'
p287
g3
tp288
a(g1
S'ARFIP2'
p289
g3
tp290
a(g1
S'RAB11FIP2'
p291
g3
tp292
a(g1
S'FPGS'
p293
g3
tp294
a(g1
S'STAMBP'
p295
g3
tp296
a(g1
S'PRKX'
p297
g3
tp298
a(g1
S'RNH1'
p299
g3
tp300
a(g1
S'ATG3'
p301
g3
tp302
a(g1
S'FAH'
p303
g3
tp304
a(g1
S'NCK1'
p305
g3
tp306
a(g1
S'PLP2'
p307
g3
tp308
a(g1
S'CFLAR'
p309
g3
tp310
a(g1
S'SOX4'
p311
g3
tp312
a(g1
S'HEATR1'
p313
g3
tp314
a(g1
S'TESK1'
p315
g3
tp316
a(g1
S'HN1L'
p317
g3
tp318
a(g1
S'WDR7'
p319
g3
tp320
a(g1
S'AKAP8'
p321
g3
tp322
a(g1
S'RRAGA'
p323
g3
tp324
a(g1
S'ELOVL6'
p325
g3
tp326
a(g1
S'SLC1A4'
p327
g3
tp328
a(g1
S'ACBD3'
p329
g3
tp330
a(g1
S'GRWD1'
p331
g3
tp332
a(g1
S'PMAIP1'
p333
g3
tp334
a(g1
S'STAT1'
p335
g3
tp336
a(g1
S'FOXJ3'
p337
g3
tp338
a(g1
S'TWF2'
p339
g3
tp340
a(g1
S'HDAC6'
p341
g3
tp342
a(g1
S'MTERFD1'
p343
g3
tp344
a(g1
S'CCND1'
p345
g3
tp346
a(g1
S'CHIC2'
p347
g3
tp348
a(g1
S'PXN'
p349
g3
tp350
a(g1
S'USP7'
p351
g3
tp352
a(g1
S'NOSIP'
p353
g3
tp354
a(g1
S'PHKB'
p355
g3
tp356
a(g1
S'DLD'
p357
g3
tp358
a(g1
S'NFKBIB'
p359
g3
tp360
a(g1
S'CASC3'
p361
g3
tp362
a(g1
S'IDE'
p363
g3
tp364
a(g1
S'CD40'
p365
g3
tp366
a(g1
S'MLEC'
p367
g3
tp368
a(g1
S'GLI2'
p369
g3
tp370
a(g1
S'PRPF4'
p371
g3
tp372
a(g1
S'MELK'
p373
g3
tp374
a(g1
S'USP22'
p375
g3
tp376
a(g1
S'DAXX'
p377
g3
tp378
a(g1
S'TMED10'
p379
g3
tp380
a(g1
S'CHERP'
p381
g3
tp382
a(g1
S'SMAD3'
p383
g3
tp384
a(g1
S'OXA1L'
p385
g3
tp386
a(g1
S'PIK3CA'
p387
g3
tp388
a(g1
S'SNX7'
p389
g3
tp390
a(g1
S'TRAPPC6A'
p391
g3
tp392
a(g1
S'ATP2C1'
p393
g3
tp394
a(g1
S'CDCA4'
p395
g3
tp396
a(g1
S'TBC1D9B'
p397
g3
tp398
a(g1
S'USP14'
p399
g3
tp400
a(g1
S'APPBP2'
p401
g3
tp402
a(g1
S'CDC20'
p403
g3
tp404
a(g1
S'NARFL'
p405
g3
tp406
a(g1
S'RPS6'
p407
g3
tp408
a(g1
S'DDX42'
p409
g3
tp410
a(g1
S'ECH1'
p411
g3
tp412
a(g1
S'HDAC2'
p413
g3
tp414
a(g1
S'IKBKE'
p415
g3
tp416
a(g1
S'CCL2'
p417
g3
tp418
a(g1
S'DFFA'
p419
g3
tp420
a(g1
S'MRPL19'
p421
g3
tp422
a(g1
S'WDTC1'
p423
g3
tp424
a(g1
S'PLSCR3'
p425
g3
tp426
a(g1
S'SUZ12'
p427
g3
tp428
a(g1
S'CSNK2A2'
p429
g3
tp430
a(g1
S'H2AFV'
p431
g3
tp432
a(g1
S'NUSAP1'
p433
g3
tp434
a(g1
S'TICAM1'
p435
g3
tp436
a(g1
S'FAM69A'
p437
g3
tp438
a(g1
S'KIAA0100'
p439
g3
tp440
a(g1
S'PAICS'
p441
g3
tp442
a(g1
S'SRC'
p443
g3
tp444
a(g1
S'BMP4'
p445
g3
tp446
a(g1
S'CDK2'
p447
g3
tp448
a(g1
S'EDN1'
p449
g3
tp450
a(g1
S'XPO7'
p451
g3
tp452
a(g1
S'FAIM'
p453
g3
tp454
a(g1
S'KIAA0494'
p455
g3
tp456
a(g1
S'PXMP2'
p457
g3
tp458
a(g1
S'SQSTM1'
p459
g3
tp460
a(g1
S'HIF1A'
p461
g3
tp462
a(g1
S'TIMM17B'
p463
g3
tp464
a(g1
S'STXBP2'
p465
g3
tp466
a(g1
S'WRB'
p467
g3
tp468
a(g1
S'ETFB'
p469
g3
tp470
a(g1
S'MNAT1'
p471
g3
tp472
a(g1
S'CAMSAP2'
p473
g3
tp474
a(g1
S'HPRT1'
p475
g3
tp476
a(g1
S'ARNT2'
p477
g3
tp478
a(g1
S'RRS1'
p479
g3
tp480
a(g1
S'ADAT1'
p481
g3
tp482
a(g1
S'SPAG7'
p483
g3
tp484
a(g1
S'MAPK1IP1L'
p485
g3
tp486
a(g1
S'SCAND1'
p487
g3
tp488
a(g1
S'MFSD10'
p489
g3
tp490
a(g1
S'MSH6'
p491
g3
tp492
a(g1
S'COPS7A'
p493
g3
tp494
a(g1
S'UBE2C'
p495
g3
tp496
a(g1
S'FIS1'
p497
g3
tp498
a(g1
S'HS2ST1'
p499
g3
tp500
a(g1
S'NUDT9'
p501
g3
tp502
a(g1
S'TXLNA'
p503
g3
tp504
a(g1
S'CSRP1'
p505
g3
tp506
a(g1
S'DNAJB1'
p507
g3
tp508
a(g1
S'METRN'
p509
g3
tp510
a(g1
S'TOPBP1'
p511
g3
tp512
a(g1
S'ABCF1'
p513
g3
tp514
a(g1
S'TCTA'
p515
g3
tp516
a(g1
S'LGMN'
p517
g3
tp518
a(g1
S'TLK2'
p519
g3
tp520
a(g1
S'KIAA1033'
p521
g3
tp522
a(g1
S'PTGS2'
p523
g3
tp524
a(g1
S'DNAJB6'
p525
g3
tp526
a(g1
S'PLA2G4A'
p527
g3
tp528
a(g1
S'MAT2A'
p529
g3
tp530
a(g1
S'TLR4'
p531
g3
tp532
a(g1
S'HMGCS1'
p533
g3
tp534
a(g1
S'MBTPS1'
p535
g3
tp536
a(g1
S'SPRED2'
p537
g3
tp538
a(g1
S'ZNF274'
p539
g3
tp540
a(g1
S'CLIC4'
p541
g3
tp542
a(g1
S'MAP7'
p543
g3
tp544
a(g1
S'CHAC1'
p545
g3
tp546
a(g1
S'EIF4G1'
p547
g3
tp548
a(g1
S'BTK'
p549
g3
tp550
a(g1
S'GNAS'
p551
g3
tp552
a(g1
S'MYL9'
p553
g3
tp554
a(g1
S'TEX10'
p555
g3
tp556
a(g1
S'PSMD2'
p557
g3
tp558
a(g1
S'ZNF586'
p559
g3
tp560
a(g1
S'CLTC'
p561
g3
tp562
a(g1
S'IKZF1'
p563
g3
tp564
a(g1
S'APBB2'
p565
g3
tp566
a(g1
S'HSD17B10'
p567
g3
tp568
a(g1
S'RNF167'
p569
g3
tp570
a(g1
S'STX1A'
p571
g3
tp572
a(g1
S'ALDOA'
p573
g3
tp574
a(g1
S'EPHA3'
p575
g3
tp576
a(g1
S'STAT5B'
p577
g3
tp578
a(g1
S'TXNDC9'
p579
g3
tp580
a(g1
S'CCNA2'
p581
g3
tp582
a(g1
S'VGLL4'
p583
g3
tp584
a(g1
S'CASP10'
p585
g3
tp586
a(g1
S'SDHB'
p587
g3
tp588
a(g1
S'ETS1'
p589
g3
tp590
a(g1
S'YTHDF1'
p591
g3
tp592
a(g1
S'FOXO4'
p593
g3
tp594
a(g1
S'LSM5'
p595
g3
tp596
a(g1
S'TOMM34'
p597
g3
tp598
a(g1
S'ZMYM2'
p599
g3
tp600
a(g1
S'CHMP6'
p601
g3
tp602
a(g1
S'KIAA0907'
p603
g3
tp604
a(g1
S'CASP7'
p605
g3
tp606
a(g1
S'HK1'
p607
g3
tp608
a(g1
S'PAPD7'
p609
g3
tp610
a(g1
S'PIGB'
p611
g3
tp612
a(g1
S'CHEK2'
p613
g3
tp614
a(g1
S'PLOD3'
p615
g3
tp616
a(g1
S'ACD'
p617
g3
tp618
a(g1
S'TRAK2'
p619
g3
tp620
a(g1
S'SUPV3L1'
p621
g3
tp622
a(g1
S'VAPB'
p623
g3
tp624
a(g1
S'GPATCH8'
p625
g3
tp626
a(g1
S'HSPD1'
p627
g3
tp628
a(g1
S'BUB1B'
p629
g3
tp630
a(g1
S'TGFBR2'
p631
g3
tp632
a(g1
S'MRPL12'
p633
g3
tp634
a(g1
S'NOTCH1'
p635
g3
tp636
a(g1
S'PNP'
p637
g3
tp638
a(g1
S'SHC1'
p639
g3
tp640
a(g1
S'ARPP19'
p641
g3
tp642
a(g1
S'CEBPA'
p643
g3
tp644
a(g1
S'PSMF1'
p645
g3
tp646
a(g1
S'RTN2'
p647
g3
tp648
a(g1
S'NPEPL1'
p649
g3
tp650
a(g1
S'USP1'
p651
g3
tp652
a(g1
S'RPA1'
p653
g3
tp654
a(g1
S'SIRT3'
p655
g3
tp656
a(g1
S'KLHDC2'
p657
g3
tp658
a(g1
S'UBQLN2'
p659
g3
tp660
a(g1
S'DMTF1'
p661
g3
tp662
a(g1
S'SCARB1'
p663
g3
tp664
a(g1
S'CLPX'
p665
g3
tp666
a(g1
S'TPM1'
p667
g3
tp668
a(g1
S'TM9SF2'
p669
g3
tp670
a(g1
S'TXNL4B'
p671
g3
tp672
a(g1
S'ATF6'
p673
g3
tp674
a(g1
S'PRR15L'
p675
g3
tp676
a(g1
S'NUP88'
p677
g3
tp678
a(g1
S'ST6GALNAC2'
p679
g3
tp680
a(g1
S'ADH5'
p681
g3
tp682
a(g1
S'FUT1'
p683
g3
tp684
a(g1
S'GOLT1B'
p685
g3
tp686
a(g1
S'PRUNE'
p687
g3
tp688
a(g1
S'PPOX'
p689
g3
tp690
a(g1
S'SYPL1'
p691
g3
tp692
a(g1
S'CANT1'
p693
g3
tp694
a(g1
S'ZNF451'
p695
g3
tp696
a(g1
S'HOMER2'
p697
g3
tp698
a(g1
S'RALB'
p699
g3
tp700
a(g1
S'CLTB'
p701
g3
tp702
a(g1
S'TRIM13'
p703
g3
tp704
a(g1
S'FBXO7'
p705
g3
tp706
a(g1
S'PHKA1'
p707
g3
tp708
a(g1
S'CYCS'
p709
g3
tp710
a(g1
S'PPARD'
p711
g3
tp712
a(g1
S'ENOSF1'
p713
g3
tp714
a(g1
S'MAP4K4'
p715
g3
tp716
a(g1
S'PAN2'
p717
g3
tp718
a(g1
S'STAT3'
p719
g3
tp720
a(g1
S'LIG1'
p721
g3
tp722
a(g1
S'PPIC'
p723
g3
tp724
a(g1
S'EIF5'
p725
g3
tp726
a(g1
S'GNB5'
p727
g3
tp728
a(g1
S'GNAI1'
p729
g3
tp730
a(g1
S'INSIG1'
p731
g3
tp732
a(g1
S'DNMT3A'
p733
g3
tp734
a(g1
S'TM9SF3'
p735
g3
tp736
a(g1
S'CCDC86'
p737
g3
tp738
a(g1
S'HIST2H2BE'
p739
g3
tp740
a(g1
S'S100A4'
p741
g3
tp742
a(g1
S'SLC25A14'
p743
g3
tp744
a(g1
S'KTN1'
p745
g3
tp746
a(g1
S'TBXA2R'
p747
g3
tp748
a(g1
S'ARHGAP1'
p749
g3
tp750
a(g1
S'FBXO11'
p751
g3
tp752
a(g1
S'HERPUD1'
p753
g3
tp754
a(g1
S'LPAR2'
p755
g3
tp756
a(g1
S'COASY'
p757
g3
tp758
a(g1
S'RPL39L'
p759
g3
tp760
a(g1
S'BPHL'
p761
g3
tp762
a(g1
S'RASA1'
p763
g3
tp764
a(g1
S'ATMIN'
p765
g3
tp766
a(g1
S'MAPKAPK3'
p767
g3
tp768
a(g1
S'CASP3'
p769
g3
tp770
a(g1
S'MBOAT7'
p771
g3
tp772
a(g1
S'PNKP'
p773
g3
tp774
a(g1
S'PSME2'
p775
g3
tp776
a(g1
S'NISCH'
p777
g3
tp778
a(g1
S'SLC35A3'
p779
g3
tp780
a(g1
S'CPSF4'
p781
g3
tp782
a(g1
S'LSR'
p783
g3
tp784
a(g1
S'COPB2'
p785
g3
tp786
a(g1
S'MEF2C'
p787
g3
tp788
a(g1
S'GADD45A'
p789
g3
tp790
a(g1
S'KDM5A'
p791
g3
tp792
a(g1
S'FAM63A'
p793
g3
tp794
a(g1
S'SMNDC1'
p795
g3
tp796
a(g1
S'NUDCD3'
p797
g3
tp798
a(g1
S'RAB4A'
p799
g3
tp800
a(g1
S'FGFR2'
p801
g3
tp802
a(g1
S'IFRD2'
p803
g3
tp804
a(g1
S'BACE2'
p805
g3
tp806
a(g1
S'HMGCR'
p807
g3
tp808
a(g1
S'LYN'
p809
g3
tp810
a(g1
S'SLC35B1'
p811
g3
tp812
a(g1
S'ISOC1'
p813
g3
tp814
a(g1
S'TIMP2'
p815
g3
tp816
a(g1
S'DUSP3'
p817
g3
tp818
a(g1
S'LSM6'
p819
g3
tp820
a(g1
S'CALM3'
p821
g3
tp822
a(g1
S'MOK'
p823
g3
tp824
a(g1
S'PPP1R13B'
p825
g3
tp826
a(g1
S'SACM1L'
p827
g3
tp828
a(g1
S'DNAJB2'
p829
g3
tp830
a(g1
S'TCERG1'
p831
g3
tp832
a(g1
S'CERK'
p833
g3
tp834
a(g1
S'KIAA0196'
p835
g3
tp836
a(g1
S'DNM1'
p837
g3
tp838
a(g1
S'LAP3'
p839
g3
tp840
a(g1
S'DDIT4'
p841
g3
tp842
a(g1
S'MAPKAPK5'
p843
g3
tp844
a(g1
S'ALAS1'
p845
g3
tp846
a(g1
S'HDGFRP3'
p847
g3
tp848
a(g1
S'PAFAH1B1'
p849
g3
tp850
a(g1
S'PRKCH'
p851
g3
tp852
a(g1
S'PSRC1'
p853
g3
tp854
a(g1
S'RAB21'
p855
g3
tp856
a(g1
S'ERO1L'
p857
g3
tp858
a(g1
S'PSIP1'
p859
g3
tp860
a(g1
S'APOE'
p861
g3
tp862
a(g1
S'CREB1'
p863
g3
tp864
a(g1
S'MBNL2'
p865
g3
tp866
a(g1
S'RBM15B'
p867
g3
tp868
a(g1
S'PACSIN3'
p869
g3
tp870
a(g1
S'TOMM70A'
p871
g3
tp872
a(g1
S'CBR1'
p873
g3
tp874
a(g1
S'MTA1'
p875
g3
tp876
a(g1
S'MACF1'
p877
g3
tp878
a(g1
S'PRKCD'
p879
g3
tp880
a(g1
S'CCNA1'
p881
g3
tp882
a(g1
S'PIK3R4'
p883
g3
tp884
a(g1
S'CSNK1E'
p885
g3
tp886
a(g1
S'HIST1H2BK'
p887
g3
tp888
a(g1
S'JUN'
p889
g3
tp890
a(g1
S'PCCB'
p891
g3
tp892
a(g1
S'STAP2'
p893
g3
tp894
a(g1
S'TMEM50A'
p895
g3
tp896
a(g1
S'PMM2'
p897
g3
tp898
a(g1
S'SCCPDH'
p899
g3
tp900
a(g1
S'HSD17B11'
p901
g3
tp902
a(g1
S'TSC22D3'
p903
g3
tp904
a(g1
S'FBXL12'
p905
g3
tp906
a(g1
S'TFAP2A'
p907
g3
tp908
a(g1
S'WDR61'
p909
g3
tp910
a(g1
S'ZNF395'
p911
g3
tp912
a(g1
S'FAS'
p913
g3
tp914
a(g1
S'VPS72'
p915
g3
tp916
a(g1
S'CENPE'
p917
g3
tp918
a(g1
S'CLSTN1'
p919
g3
tp920
a(g1
S'CREG1'
p921
g3
tp922
a(g1
S'MAPK9'
p923
g3
tp924
a(g1
S'PRR7'
p925
g3
tp926
a(g1
S'SKP1'
p927
g3
tp928
a(g1
S'POP4'
p929
g3
tp930
a(g1
S'TMEM110'
p931
g3
tp932
a(g1
S'NFE2L2'
p933
g3
tp934
a(g1
S'ZNF589'
p935
g3
tp936
a(g1
S'BAX'
p937
g3
tp938
a(g1
S'BLCAP'
p939
g3
tp940
a(g1
S'CNDP2'
p941
g3
tp942
a(g1
S'FAM20B'
p943
g3
tp944
a(g1
S'PROS1'
p945
g3
tp946
a(g1
S'TNIP1'
p947
g3
tp948
a(g1
S'CRKL'
p949
g3
tp950
a(g1
S'P4HTM'
p951
g3
tp952
a(g1
S'REEP5'
p953
g3
tp954
a(g1
S'ZNF318'
p955
g3
tp956
a(g1
S'BZW2'
p957
g3
tp958
a(g1
S'FDFT1'
p959
g3
tp960
a(g1
S'CGRRF1'
p961
g3
tp962
a(g1
S'TRAP1'
p963
g3
tp964
a(g1
S'AMDHD2'
p965
g3
tp966
a(g1
S'GTF2A2'
p967
g3
tp968
a(g1
S'PEX11A'
p969
g3
tp970
a(g1
S'PSMD9'
p971
g3
tp972
a(g1
S'GFOD1'
p973
g3
tp974
a(g1
S'MTFR1'
p975
g3
tp976
a(g1
S'PECR'
p977
g3
tp978
a(g1
S'UBE2A'
p979
g3
tp980
a(g1
S'NIT1'
p981
g3
tp982
a(g1
S'SOCS2'
p983
g3
tp984
a(g1
S'SYNGR3'
p985
g3
tp986
a(g1
S'ZDHHC6'
p987
g3
tp988
a(g1
S'ITGAE'
p989
g3
tp990
a(g1
S'NFKB2'
p991
g3
tp992
a(g1
S'STK25'
p993
g3
tp994
a(g1
S'TMEM5'
p995
g3
tp996
a(g1
S'ABCF3'
p997
g3
tp998
a(g1
S'ATP5S'
p999
g3
tp1000
a(g1
S'FCHO1'
p1001
g3
tp1002
a(g1
S'NGRN'
p1003
g3
tp1004
a(g1
S'HOXA5'
p1005
g3
tp1006
a(g1
S'OXSR1'
p1007
g3
tp1008
a(g1
S'GRN'
p1009
g3
tp1010
a(g1
S'SMARCC1'
p1011
g3
tp1012
a(g1
S'NUP85'
p1013
g3
tp1014
a(g1
S'PAK6'
p1015
g3
tp1016
a(g1
S'GHR'
p1017
g3
tp1018
a(g1
S'GTPBP8'
p1019
g3
tp1020
a(g1
S'GLOD4'
p1021
g3
tp1022
a(g1
S'PTK2'
p1023
g3
tp1024
a(g1
S'CDK4'
p1025
g3
tp1026
a(g1
S'EPN2'
p1027
g3
tp1028
a(g1
S'CCDC90A'
p1029
g3
tp1030
a(g1
S'IL4R'
p1031
g3
tp1032
a(g1
S'KIAA0528'
p1033
g3
tp1034
a(g1
S'PRKAG2'
p1035
g3
tp1036
a(g1
S'KIT'
p1037
g3
tp1038
a(g1
S'MRPS16'
p1039
g3
tp1040
a(g1
S'PTPRC'
p1041
g3
tp1042
a(g1
S'RPS5'
p1043
g3
tp1044
a(g1
S'NOL3'
p1045
g3
tp1046
a(g1
S'PSMG1'
p1047
g3
tp1048
a(g1
S'NR1H2'
p1049
g3
tp1050
a(g1
S'TMEM97'
p1051
g3
tp1052
a(g1
S'LRRC41'
p1053
g3
tp1054
a(g1
S'PLS1'
p1055
g3
tp1056
a(g1
S'DUSP22'
p1057
g3
tp1058
a(g1
S'KIAA1279'
p1059
g3
tp1060
a(g1
S'RPS6KA1'
p1061
g3
tp1062
a(g1
S'TCEAL4'
p1063
g3
tp1064
a(g1
S'DCK'
p1065
g3
tp1066
a(g1
S'NUP133'
p1067
g3
tp1068
a(g1
S'NUP62'
p1069
g3
tp1070
a(g1
S'TRIM2'
p1071
g3
tp1072
a(g1
S'SNCA'
p1073
g3
tp1074
a(g1
S'SPTAN1'
p1075
g3
tp1076
a(g1
S'MALT1'
p1077
g3
tp1078
a(g1
S'VPS28'
p1079
g3
tp1080
a(g1
S'LRRC16A'
p1081
g3
tp1082
a(g1
S'YKT6'
p1083
g3
tp1084
a(g1
S'CHP'
p1085
g3
tp1086
a(g1
S'KIF2C'
p1087
g3
tp1088
a(g1
S'NNT'
p1089
g3
tp1090
a(g1
S'NR2F6'
p1091
g3
tp1092
a(g1
S'COL1A1'
p1093
g3
tp1094
a(g1
S'EXOSC4'
p1095
g3
tp1096
a(g1
S'CDC25A'
p1097
g3
tp1098
a(g1
S'PDLIM1'
p1099
g3
tp1100
a(g1
S'CRELD2'
p1101
g3
tp1102
a(g1
S'TP53'
p1103
g3
tp1104
a(g1
S'IQGAP1'
p1105
g3
tp1106
a(g1
S'RRP12'
p1107
g3
tp1108
a(g1
S'ACAT2'
p1109
g3
tp1110
a(g1
S'EGR1'
p1111
g3
tp1112
a(g1
S'MUC1'
p1113
g3
tp1114
a(g1
S'THAP11'
p1115
g3
tp1116
a(g1
S'AURKB'
p1117
g3
tp1118
a(g1
S'CEBPD'
p1119
g3
tp1120
a(g1
S'HSPA4'
p1121
g3
tp1122
a(g1
S'MAST2'
p1123
g3
tp1124
a(g1
S'DHDDS'
p1125
g3
tp1126
a(g1
S'TOP2A'
p1127
g3
tp1128
a(g1
S'GADD45B'
p1129
g3
tp1130
a(g1
S'NCK2'
p1131
g3
tp1132
a(g1
S'AURKA'
p1133
g3
tp1134
a(g1
S'KIAA0355'
p1135
g3
tp1136
a(g1
S'B3GNT1'
p1137
g3
tp1138
a(g1
S'DYNLT3'
p1139
g3
tp1140
a(g1
S'CDK5R1'
p1141
g3
tp1142
a(g1
S'CHMP4A'
p1143
g3
tp1144
a(g1
S'IPO13'
p1145
g3
tp1146
a(g1
S'SCP2'
p1147
g3
tp1148
a(g1
S'ITFG1'
p1149
g3
tp1150
a(g1
S'RAD9A'
p1151
g3
tp1152
a(g1
S'DRAP1'
p1153
g3
tp1154
a(g1
S'SPP1'
p1155
g3
tp1156
a(g1
S'HYOU1'
p1157
g3
tp1158
a(g1
S'PCMT1'
p1159
g3
tp1160
a(g1
S'FOS'
p1161
g3
tp1162
a(g1
S'FYN'
p1163
g3
tp1164
a(g1
S'MCOLN1'
p1165
g3
tp1166
a(g1
S'MYC'
p1167
g3
tp1168
a(g1
S'ID2'
p1169
g3
tp1170
a(g1
S'POLB'
p1171
g3
tp1172
a(g1
S'CETN3'
p1173
g3
tp1174
a(g1
S'KCNK1'
p1175
g3
tp1176
a(g1
S'AXIN1'
p1177
g3
tp1178
a(g1
S'SMC4'
p1179
g3
tp1180
a(g1
S'RAI14'
p1181
g3
tp1182
a(g1
S'SMARCD2'
p1183
g3
tp1184
a(g1
S'DNAJC15'
p1185
g3
tp1186
a(g1
S'MPZL1'
p1187
g3
tp1188
a(g1
S'HOXA10'
p1189
g3
tp1190
a(g1
S'NRAS'
p1191
g3
tp1192
a(g1
S'CASP2'
p1193
g3
tp1194
a(g1
S'EBNA1BP2'
p1195
g3
tp1196
a(g1
S'CTNND1'
p1197
g3
tp1198
a(g1
S'TATDN2'
p1199
g3
tp1200
a(g1
S'LRPAP1'
p1201
g3
tp1202
a(g1
S'ZNF131'
p1203
g3
tp1204
a(g1
S'BNIP3L'
p1205
g3
tp1206
a(g1
S'HOOK2'
p1207
g3
tp1208
a(g1
S'ERBB2'
p1209
g3
tp1210
a(g1
S'TBPL1'
p1211
g3
tp1212
a(g1
S'INTS3'
p1213
g3
tp1214
a(g1
S'RAE1'
p1215
g3
tp1216
a(g1
S'CDK1'
p1217
g3
tp1218
a(g1
S'RFNG'
p1219
g3
tp1220
a(g1
S'MICALL1'
p1221
g3
tp1222
a(g1
S'SLC35A1'
p1223
g3
tp1224
a(g1
S'KLHL21'
p1225
g3
tp1226
a(g1
S'NIPSNAP1'
p1227
g3
tp1228
a(g1
S'BCL7B'
p1229
g3
tp1230
a(g1
S'TLE1'
p1231
g3
tp1232
a(g1
S'FZD7'
p1233
g3
tp1234
a(g1
S'TIMELESS'
p1235
g3
tp1236
a(g1
S'COG2'
p1237
g3
tp1238
a(g1
S'DHX29'
p1239
g3
tp1240
a(g1
S'MMP2'
p1241
g3
tp1242
a(g1
S'MRPS2'
p1243
g3
tp1244
a(g1
S'KCTD5'
p1245
g3
tp1246
a(g1
S'TCEA2'
p1247
g3
tp1248
a(g1
S'CNPY3'
p1249
g3
tp1250
a(g1
S'FHL2'
p1251
g3
tp1252
a(g1
S'ADAM10'
p1253
g3
tp1254
a(g1
S'FKBP4'
p1255
g3
tp1256
a(g1
S'CD58'
p1257
g3
tp1258
a(g1
S'KAT6A'
p1259
g3
tp1260
a(g1
S'CDK7'
p1261
g3
tp1262
a(g1
S'KIF5C'
p1263
g3
tp1264
a(g1
S'HMG20B'
p1265
g3
tp1266
a(g1
S'MAP3K4'
p1267
g3
tp1268
a(g1
S'PIN1'
p1269
g3
tp1270
a(g1
S'ZFP36'
p1271
g3
tp1272
a(g1
S'INPP1'
p1273
g3
tp1274
a(g1
S'LAGE3'
p1275
g3
tp1276
a(g1
S'RAC2'
p1277
g3
tp1278
a(g1
S'TNFRSF21'
p1279
g3
tp1280
a(g1
S'HMOX1'
p1281
g3
tp1282
a(g1
S'KIF14'
p1283
g3
tp1284
a(g1
S'COL4A1'
p1285
g3
tp1286
a(g1
S'DUSP6'
p1287
g3
tp1288
a(g1
S'CYB561'
p1289
g3
tp1290
a(g1
S'EPB41L2'
p1291
g3
tp1292
a(g1
S'GNAI2'
p1293
g3
tp1294
a(g1
S'HTRA1'
p1295
g3
tp1296
a(g1
S'TSTA3'
p1297
g3
tp1298
a(g1
S'WASF3'
p1299
g3
tp1300
a(g1
S'DNMT1'
p1301
g3
tp1302
a(g1
S'TSPAN6'
p1303
g3
tp1304
a(g1
S'FBXO21'
p1305
g3
tp1306
a(g1
S'RAB27A'
p1307
g3
tp1308
a(g1
S'DDR1'
p1309
g3
tp1310
a(g1
S'PPP2R3C'
p1311
g3
tp1312
a(g1
S'ADRB2'
p1313
g3
tp1314
a(g1
S'LPGAT1'
p1315
g3
tp1316
a(g1
S'DUSP11'
p1317
g3
tp1318
a(g1
S'GRB10'
p1319
g3
tp1320
a(g1
S'MMP1'
p1321
g3
tp1322
a(g1
S'TP53BP2'
p1323
g3
tp1324
a(g1
S'CDKN1A'
p1325
g3
tp1326
a(g1
S'ZW10'
p1327
g3
tp1328
a(g1
S'CORO1A'
p1329
g3
tp1330
a(g1
S'TJP1'
p1331
g3
tp1332
a(g1
S'ABCB6'
p1333
g3
tp1334
a(g1
S'XPNPEP1'
p1335
g3
tp1336
a(g1
S'MAMLD1'
p1337
g3
tp1338
a(g1
S'MTHFD2'
p1339
g3
tp1340
a(g1
S'DSG2'
p1341
g3
tp1342
a(g1
S'PRAF2'
p1343
g3
tp1344
a(g1
S'DNTTIP2'
p1345
g3
tp1346
a(g1
S'SLC27A3'
p1347
g3
tp1348
a(g1
S'CD97'
p1349
g3
tp1350
a(g1
S'HTATSF1'
p1351
g3
tp1352
a(g1
S'IL13RA1'
p1353
g3
tp1354
a(g1
S'NCAPD2'
p1355
g3
tp1356
a(g1
S'AGL'
p1357
g3
tp1358
a(g1
S'TMEM109'
p1359
g3
tp1360
a(g1
S'CDC25B'
p1361
g3
tp1362
a(g1
S'ICAM1'
p1363
g3
tp1364
a(g1
S'GATA3'
p1365
g3
tp1366
a(g1
S'NUP93'
p1367
g3
tp1368
a(g1
S'PLA2G15'
p1369
g3
tp1370
a(g1
S'RPA3'
p1371
g3
tp1372
a(g1
S'PIP4K2B'
p1373
g3
tp1374
a(g1
S'TES'
p1375
g3
tp1376
a(g1
S'MYCBP2'
p1377
g3
tp1378
a(g1
S'SPR'
p1379
g3
tp1380
a(g1
S'PGRMC1'
p1381
g3
tp1382
a(g1
S'RELB'
p1383
g3
tp1384
a(g1
S'AARS'
p1385
g3
tp1386
a(g1
S'EPHB2'
p1387
g3
tp1388
a(g1
S'GPC1'
p1389
g3
tp1390
a(g1
S'RPIA'
p1391
g3
tp1392
a(g1
S'ELAC2'
p1393
g3
tp1394
a(g1
S'GPR56'
p1395
g3
tp1396
a(g1
S'NVL'
p1397
g3
tp1398
a(g1
S'PLSCR1'
p1399
g3
tp1400
a(g1
S'CHEK1'
p1401
g3
tp1402
a(g1
S'CTSL1'
p1403
g3
tp1404
a(g1
S'CTSD'
p1405
g3
tp1406
a(g1
S'ME2'
p1407
g3
tp1408
a(g1
S'ARHGEF2'
p1409
g3
tp1410
a(g1
S'PDGFA'
p1411
g3
tp1412
a(g1
S'ILK'
p1413
g3
tp1414
a(g1
S'WDR67'
p1415
g3
tp1416
a(g1
S'NFIL3'
p1417
g3
tp1418
a(g1
S'RFC2'
p1419
g3
tp1420
a(g1
S'ARL4C'
p1421
g3
tp1422
a(g1
S'TIMM9'
p1423
g3
tp1424
a(g1
S'CPNE3'
p1425
g3
tp1426
a(g1
S'ORC1'
p1427
g3
tp1428
a(g1
S'C5'
p1429
g3
tp1430
a(g1
S'PARP2'
p1431
g3
tp1432
a(g1
S'FASTKD5'
p1433
g3
tp1434
a(g1
S'SCRN1'
p1435
g3
tp1436
a(g1
S'MAN2B1'
p1437
g3
tp1438
a(g1
S'PTPLAD1'
p1439
g3
tp1440
a(g1
S'MSRA'
p1441
g3
tp1442
a(g1
S'NFKBIA'
p1443
g3
tp1444
a(g1
S'DCTD'
p1445
g3
tp1446
a(g1
S'SYNE2'
p1447
g3
tp1448
a(g1
S'MBNL1'
p1449
g3
tp1450
a(g1
S'UBE3C'
p1451
g3
tp1452
a(g1
S'CCDC92'
p1453
g3
tp1454
a(g1
S'MYCBP'
p1455
g3
tp1456
a(g1
S'CXCL2'
p1457
g3
tp1458
a(g1
S'PTPN1'
p1459
g3
tp1460
a(g1
S'BRP44'
p1461
g3
tp1462
a(g1
S'TIMM22'
p1463
g3
tp1464
a(g1
S'ATF5'
p1465
g3
tp1466
a(g1
S'ECD'
p1467
g3
tp1468
a(g1
S'CIRBP'
p1469
g3
tp1470
a(g1
S'NSDHL'
p1471
g3
tp1472
a(g1
S'ADI1'
p1473
g3
tp1474
a(g1
S'NFKBIE'
p1475
g3
tp1476
a(g1
S'ADCK3'
p1477
g3
tp1478
a(g1
S'PRSS23'
p1479
g3
tp1480
a(g1
S'CCNH'
p1481
g3
tp1482
a(g1
S'GDPD5'
p1483
g3
tp1484
a(g1
S'P4HA2'
p1485
g3
tp1486
a(g1
S'TARBP1'
p1487
g3
tp1488
a(g1
S'ATP6V0B'
p1489
g3
tp1490
a(g1
S'RBKS'
p1491
g3
tp1492
a(g1
S'CAPN1'
p1493
g3
tp1494
a(g1
S'KDM3A'
p1495
g3
tp1496
a(g1
S'BID'
p1497
g3
tp1498
a(g1
S'STXBP1'
p1499
g3
tp1500
a(g1
S'ITGB5'
p1501
g3
tp1502
a(g1
S'MTF2'
p1503
g3
tp1504
a(g1
S'HLA-DRA'
p1505
g3
tp1506
a(g1
S'SLC11A2'
p1507
g3
tp1508
a(g1
S'PDIA5'
p1509
g3
tp1510
a(g1
S'PIK3C2B'
p1511
g3
tp1512
a(g1
S'RAP1GAP'
p1513
g3
tp1514
a(g1
S'SLC25A46'
p1515
g3
tp1516
a(g1
S'CDK19'
p1517
g3
tp1518
a(g1
S'NOLC1'
p1519
g3
tp1520
a(g1
S'CAT'
p1521
g3
tp1522
a(g1
S'KIAA0753'
p1523
g3
tp1524
a(g1
S'DUSP14'
p1525
g3
tp1526
a(g1
S'KAT6B'
p1527
g3
tp1528
a(g1
S'CHN1'
p1529
g3
tp1530
a(g1
S'HMGA2'
p1531
g3
tp1532
a(g1
S'IGFBP3'
p1533
g3
tp1534
a(g1
S'MAPK13'
p1535
g3
tp1536
a(g1
S'TRIB1'
p1537
g3
tp1538
a(g1
S'UFM1'
p1539
g3
tp1540
a(g1
S'GNA15'
p1541
g3
tp1542
a(g1
S'TP53BP1'
p1543
g3
tp1544
a(g1
S'FRS2'
p1545
g3
tp1546
a(g1
S'IARS2'
p1547
g3
tp1548
a(g1
S'BECN1'
p1549
g3
tp1550
a(g1
S'GATA2'
p1551
g3
tp1552
a(g1
S'KDELR2'
p1553
g3
tp1554
a(g1
S'RALGDS'
p1555
g3
tp1556
a(g1
S'ELAVL1'
p1557
g3
tp1558
a(g1
S'NRIP1'
p1559
g3
tp1560
a(g1
S'CCNB2'
p1561
g3
tp1562
a(g1
S'IFNAR1'
p1563
g3
tp1564
a(g1
S'MIF'
p1565
g3
tp1566
a(g1
S'RNPS1'
p1567
g3
tp1568
a(g1
S'DAG1'
p1569
g3
tp1570
a(g1
S'SATB1'
p1571
g3
tp1572
a(g1
S'ARID4B'
p1573
g3
tp1574
a(g1
S'IGF2BP2'
p1575
g3
tp1576
a(g1
S'GSTZ1'
p1577
g3
tp1578
a(g1
S'IGF2R'
p1579
g3
tp1580
a(g1
S'SESN1'
p1581
g3
tp1582
a(g1
S'TIPARP'
p1583
g3
tp1584
a(g1
S'CRTAP'
p1585
g3
tp1586
a(g1
S'SPEN'
p1587
g3
tp1588
a(g1
S'GMNN'
p1589
g3
tp1590
a(g1
S'PFKL'
p1591
g3
tp1592
a(g1
S'CYTH1'
p1593
g3
tp1594
a(g1
S'PDHX'
p1595
g3
tp1596
a(g1
S'DENND2D'
p1597
g3
tp1598
a(g1
S'PRCP'
p1599
g3
tp1600
a(g1
S'CTTN'
p1601
g3
tp1602
a(g1
S'SMARCA4'
p1603
g3
tp1604
a(g1
S'PYGL'
p1605
g3
tp1606
a(g1
S'UBR7'
p1607
g3
tp1608
a(g1
S'GRB7'
p1609
g3
tp1610
a(g1
S'RPA2'
p1611
g3
tp1612
a(g1
S'CD44'
p1613
g3
tp1614
a(g1
S'ERBB3'
p1615
g3
tp1616
a(g1
S'GTF2E2'
p1617
g3
tp1618
a(g1
S'VAV3'
p1619
g3
tp1620
a(g1
S'ABHD6'
p1621
g3
tp1622
a(g1
S'ANXA7'
p1623
g3
tp1624
a(g1
S'MAPKAPK2'
p1625
g3
tp1626
a(g1
S'TXNRD1'
p1627
g3
tp1628
a(g1
S'CAB39'
p1629
g3
tp1630
a(g1
S'FZD1'
p1631
g3
tp1632
a(g1
S'CRYZ'
p1633
g3
tp1634
a(g1
S'TIAM1'
p1635
g3
tp1636
a(g1
S'DNM1L'
p1637
g3
tp1638
a(g1
S'GAA'
p1639
g3
tp1640
a(g1
S'DERA'
p1641
g3
tp1642
a(g1
S'SKIV2L'
p1643
g3
tp1644
a(g1
S'BLMH'
p1645
g3
tp1646
a(g1
S'PTPRK'
p1647
g3
tp1648
a(g1
S'HERC6'
p1649
g3
tp1650
a(g1
S'RRP1B'
p1651
g3
tp1652
a(g1
S'MKNK1'
p1653
g3
tp1654
a(g1
S'TSPAN3'
p1655
g3
tp1656
a(g1
S'ACOT9'
p1657
g3
tp1658
a(g1
S'PIK3R3'
p1659
g3
tp1660
a(g1
S'KEAP1'
p1661
g3
tp1662
a(g1
S'ST3GAL5'
p1663
g3
tp1664
a(g1
S'CTNNAL1'
p1665
g3
tp1666
a(g1
S'TFDP1'
p1667
g3
tp1668
a(g1
S'ABHD4'
p1669
g3
tp1670
a(g1
S'SMC3'
p1671
g3
tp1672
a(g1
S'INPP4B'
p1673
g3
tp1674
a(g1
S'LBR'
p1675
g3
tp1676
a(g1
S'PPIE'
p1677
g3
tp1678
a(g1
S'ZMIZ1'
p1679
g3
tp1680
a(g1
S'PPARG'
p1681
g3
tp1682
a(g1
S'TERF2IP'
p1683
g3
tp1684
a(g1
S'BNIP3'
p1685
g3
tp1686
a(g1
S'RPP38'
p1687
g3
tp1688
a(g1
S'BCL2'
p1689
g3
tp1690
a(g1
S'CAST'
p1691
g3
tp1692
a(g1
S'BAG3'
p1693
g3
tp1694
a(g1
S'RBM6'
p1695
g3
tp1696
a(g1
S'CSK'
p1697
g3
tp1698
a(g1
S'GNA11'
p1699
g3
tp1700
a(g1
S'ALDOC'
p1701
g3
tp1702
a(g1
S'TOR1A'
p1703
g3
tp1704
a(g1
S'SLC25A13'
p1705
g3
tp1706
a(g1
S'UBE2L6'
p1707
g3
tp1708
a(g1
S'SYK'
p1709
g3
tp1710
a(g1
S'TSPAN4'
p1711
g3
tp1712
a(g1
S'NR3C1'
p1713
g3
tp1714
a(g1
S'PCBD1'
p1715
g3
tp1716
a(g1
S'ICMT'
p1717
g3
tp1718
a(g1
S'TRIB3'
p1719
g3
tp1720
a(g1
S'EIF4EBP1'
p1721
g3
tp1722
a(g1
S'PHF15'
p1723
g3
tp1724
a(g1
S'CXCR4'
p1725
g3
tp1726
a(g1
S'GNPDA1'
p1727
g3
tp1728
a(g1
S'CCND3'
p1729
g3
tp1730
a(g1
S'FKBP14'
p1731
g3
tp1732
a(g1
S'CIAPIN1'
p1733
g3
tp1734
a(g1
S'NUCB2'
p1735
g3
tp1736
a(g1
S'COG7'
p1737
g3
tp1738
a(g1
S'RSU1'
p1739
g3
tp1740
a(g1
S'PTPN6'
p1741
g3
tp1742
a(g1
S'TUBB6'
p1743
g3
tp1744
a(g1
S'ABL1'
p1745
g3
tp1746
a(g1
S'DUSP4'
p1747
g3
tp1748
a(g1
S'CCNF'
p1749
g3
tp1750
a(g1
S'PTPN12'
p1751
g3
tp1752
a(g1
S'HSPA1A'
p1753
g3
tp1754
a(g1
S'PCK2'
p1755
g3
tp1756
a(g1
S'FAM57A'
p1757
g3
tp1758
a(g1
S'RB1'
p1759
g3
tp1760
a(g1
S'EVL'
p1761
g3
tp1762
a(g1
S'GFPT1'
p1763
g3
tp1764
a(g1
S'BLVRA'
p1765
g3
tp1766
a(g1
S'GPER'
p1767
g3
tp1768
a(g1
S'EAPP'
p1769
g3
tp1770
a(g1
S'S100A13'
p1771
g3
tp1772
a(g1
S'EXT1'
p1773
g3
tp1774
a(g1
S'MYBL2'
p1775
g3
tp1776
a(g1
S'POLE2'
p1777
g3
tp1778
a(g1
S'STX4'
p1779
g3
tp1780
a(g1
S'PLCB3'
p1781
g3
tp1782
a(g1
S'TMCO1'
p1783
g3
tp1784
a(g1
S'C2CD2'
p1785
g3
tp1786
a(g1
S'PARP1'
p1787
g3
tp1788
a(g1
S'ANKRD10'
p1789
g3
tp1790
a(g1
S'CCDC85B'
p1791
g3
tp1792
a(g1
S'DDB2'
p1793
g3
tp1794
a(g1
S'DDX10'
p1795
g3
tp1796
a(g1
S'BAMBI'
p1797
g3
tp1798
a(g1
S'CEP57'
p1799
g3
tp1800
a(g1
S'HADH'
p1801
g3
tp1802
a(g1
S'RAB31'
p1803
g3
tp1804
a(g1
S'ABCC5'
p1805
g3
tp1806
a(g1
S'GLRX'
p1807
g3
tp1808
a(g1
S'MVP'
p1809
g3
tp1810
a(g1
S'RFC5'
p1811
g3
tp1812
a(g1
S'HES1'
p1813
g3
tp1814
a(g1
S'STMN1'
p1815
g3
tp1816
a(g1
S'GALE'
p1817
g3
tp1818
a(g1
S'KLHL9'
p1819
g3
tp1820
a(g1
S'PTPRF'
p1821
g3
tp1822
a(g1
S'UBE2J1'
p1823
g3
tp1824
a(g1
S'PGM1'
p1825
g3
tp1826
a(g1
S'SLC37A4'
p1827
g3
tp1828
a(g1
S'LOXL1'
p1829
g3
tp1830
a(g1
S'PLK1'
p1831
g3
tp1832
a(g1
S'MYO10'
p1833
g3
tp1834
a(g1
S'NPRL2'
p1835
g3
tp1836
a(g1
S'LIPA'
p1837
g3
tp1838
a(g1
S'PWP1'
p1839
g3
tp1840
a(g1
S'PHGDH'
p1841
g3
tp1842
a(g1
S'PLEKHM1'
p1843
g3
tp1844
a(g1
S'ST7'
p1845
g3
tp1846
a(g1
S'VAT1'
p1847
g3
tp1848
a(g1
S'IKBKB'
p1849
g3
tp1850
a(g1
S'KIF20A'
p1851
g3
tp1852
a(g1
S'CDH3'
p1853
g3
tp1854
a(g1
S'PCM1'
p1855
g3
tp1856
a(g1
S'IER3'
p1857
g3
tp1858
a(g1
S'SSBP2'
p1859
g3
tp1860
a(g1
S'FAT1'
p1861
g3
tp1862
a(g1
S'SNX11'
p1863
g3
tp1864
a(g1
S'RNMT'
p1865
g3
tp1866
a(g1
S'SFN'
p1867
g3
tp1868
a(g1
S'EGFR'
p1869
g3
tp1870
a(g1
S'RFX5'
p1871
g3
tp1872
a(g1
S'NET1'
p1873
g3
tp1874
a(g1
S'PKIG'
p1875
g3
tp1876
a(g1
S'DECR1'
p1877
g3
tp1878
a(g1
S'FSD1'
p1879
g3
tp1880
a(g1
S'ATP6V1D'
p1881
g3
tp1882
a(g1
S'CDK6'
p1883
g3
tp1884
a(g1
S'CDC45'
p1885
g3
tp1886
a(g1
S'NPC1'
p1887
g3
tp1888
a(g1
S'EDEM1'
p1889
g3
tp1890
a(g1
S'MEST'
p1891
g3
tp1892
a(g1
S'MYLK'
p1893
g3
tp1894
a(g1
S'PAFAH1B3'
p1895
g3
tp1896
a(g1
S'CALU'
p1897
g3
tp1898
a(g1
S'USP6NL'
p1899
g3
tp1900
a(g1
S'LGALS8'
p1901
g3
tp1902
a(g1
S'NT5DC2'
p1903
g3
tp1904
a(g1
S'CCP110'
p1905
g3
tp1906
a(g1
S'LRP10'
p1907
g3
tp1908
a(g1
S'ATP1B1'
p1909
g3
tp1910
a(g1
S'STK10'
p1911
g3
tp1912
a(g1
S'OXCT1'
p1913
g3
tp1914
a(g1
S'UGDH'
p1915
g3
tp1916
a(g1
S'SLC25A4'
p1917
g3
tp1918
a(g1
S'SQRDL'
p1919
g3
tp1920
a(g1
S'HEBP1'
p1921
g3
tp1922
a(g1
S'PSMB10'
p1923
g3
tp1924
a(g1
S'ASCC3'
p1925
g3
tp1926
a(g1
S'FGFR4'
p1927
g3
tp1928
a(g1
S'CDKN2A'
p1929
g3
tp1930
a(g1
S'TRAM2'
p1931
g3
tp1932
a(g1
S'ATP11B'
p1933
g3
tp1934
a(g1
S'PYCR1'
p1935
g3
tp1936
a(g1
S'CD320'
p1937
g3
tp1938
a(g1
S'NCOA3'
p1939
g3
tp1940
a(g1
S'CDKN1B'
p1941
g3
tp1942
a(g1
S'POLD4'
p1943
g3
tp1944
a(g1
S'FOSL1'
p1945
g3
tp1946
a(g1
S'MLLT11'
p1947
g3
tp1948
a(g1
S'CEBPZ'
p1949
g3
tp1950
a(g1
S'PRKACA'
p1951
g3
tp1952
a(g1
S'GAPDH'
p1953
g3
tp1954
a(g1
S'CBR3'
p1955
g3
tp1956
a(g1
S'LYRM1'
p1957
g3
tp1958
a.